Archive member included because of file (symbol)

C:\Program Files (x86)\Intelitek\easyC V4 for Cortex\#Tools\STM32F103VD\easyCRuntime\easyCRuntimeLib.lib(easyCRuntime.o)
                              C:\Program Files (x86)\Intelitek\easyC V4 for Cortex\#Tools\STM32F103VD\Startup\Startup.o (WriteUserBit)
C:\Program Files (x86)\Intelitek\easyC V4 for Cortex\#Tools\STM32F103VD\easyCRuntime\easyCRuntimeLib.lib(Clock.o)
                              C:\Program Files (x86)\Intelitek\easyC V4 for Cortex\#Tools\STM32F103VD\Startup\Startup.o (GetMsClock)
C:\Program Files (x86)\Intelitek\easyC V4 for Cortex\#Tools\STM32F103VD\easyCRuntime\easyCRuntimeLib.lib(Comm.o)
                              C:\Program Files (x86)\Intelitek\easyC V4 for Cortex\#Tools\STM32F103VD\easyCRuntime\easyCRuntimeLib.lib(easyCRuntime.o) (slavePtr)
C:\Program Files (x86)\Intelitek\easyC V4 for Cortex\#Tools\STM32F103VD\easyCRuntime\easyCRuntimeLib.lib(Config.o)
                              C:\Program Files (x86)\Intelitek\easyC V4 for Cortex\#Tools\STM32F103VD\Startup\Startup.o (MCU_Configuration)
C:\Program Files (x86)\Intelitek\easyC V4 for Cortex\#Tools\STM32F103VD\easyCRuntime\easyCRuntimeLib.lib(InputOutput.o)
                              C:\Program Files (x86)\Intelitek\easyC V4 for Cortex\#Tools\STM32F103VD\easyCRuntime\easyCRuntimeLib.lib(Config.o) (ain_adc)
C:\Program Files (x86)\Intelitek\easyC V4 for Cortex\#Tools\STM32F103VD\easyCRuntime\easyCRuntimeLib.lib(Interrupts.o)
                              C:\Program Files (x86)\Intelitek\easyC V4 for Cortex\#Tools\STM32F103VD\easyCRuntime\easyCRuntimeLib.lib(easyCRuntime.o) (UnRegisterAllInterruptHandler)
C:\Program Files (x86)\Intelitek\easyC V4 for Cortex\#Tools\STM32F103VD\easyCRuntime\easyCRuntimeLib.lib(Motors.o)
                              C:\Program Files (x86)\Intelitek\easyC V4 for Cortex\#Tools\STM32F103VD\Startup\Startup.o (SetMotorReal)
C:\Program Files (x86)\Intelitek\easyC V4 for Cortex\#Tools\STM32F103VD\easyCRuntime\easyCRuntimeLib.lib(OI.o)
                              C:\Program Files (x86)\Intelitek\easyC V4 for Cortex\#Tools\STM32F103VD\easyCRuntime\easyCRuntimeLib.lib(Motors.o) (GetJoystickAnalogReal)
C:\Program Files (x86)\Intelitek\easyC V4 for Cortex\#Tools\STM32F103VD\easyCRuntime\easyCRuntimeLib.lib(Print.o)
                              C:\Program Files (x86)\Intelitek\easyC V4 for Cortex\#Tools\STM32F103VD\Startup\Startup.o (PrintToScreen)
C:\Program Files (x86)\Intelitek\easyC V4 for Cortex\#Tools\STM32F103VD\easyCRuntime\easyCRuntimeLib.lib(stm32f10x_it.o)
                              C:\Program Files (x86)\Intelitek\easyC V4 for Cortex\#Tools\STM32F103VD\Startup\Startup.o (NMIException)
C:\Program Files (x86)\Intelitek\easyC V4 for Cortex\#Tools\STM32F103VD\easyCRuntime\easyCRuntimeLib.lib(ddt_support.o)
                              C:\Program Files (x86)\Intelitek\easyC V4 for Cortex\#Tools\STM32F103VD\easyCRuntime\easyCRuntimeLib.lib(Clock.o) (GetKey)
C:\Program Files (x86)\Intelitek\easyC V4 for Cortex\#Tools\STM32F103VD\easyCRuntime\easyCRuntimeLib.lib(SerialPorts.o)
                              C:\Program Files (x86)\Intelitek\easyC V4 for Cortex\#Tools\STM32F103VD\Startup\Startup.o (USART2_IRQHandler)
C:\Program Files (x86)\Intelitek\easyC V4 for Cortex\#Tools\STM32F103VD\easyCRuntime\easyCRuntimeLib.lib(stm32f10x_adc.o)
                              C:\Program Files (x86)\Intelitek\easyC V4 for Cortex\#Tools\STM32F103VD\easyCRuntime\easyCRuntimeLib.lib(Config.o) (ADC_DeInit)
C:\Program Files (x86)\Intelitek\easyC V4 for Cortex\#Tools\STM32F103VD\easyCRuntime\easyCRuntimeLib.lib(stm32f10x_dma.o)
                              C:\Program Files (x86)\Intelitek\easyC V4 for Cortex\#Tools\STM32F103VD\easyCRuntime\easyCRuntimeLib.lib(Config.o) (DMA_DeInit)
C:\Program Files (x86)\Intelitek\easyC V4 for Cortex\#Tools\STM32F103VD\easyCRuntime\easyCRuntimeLib.lib(stm32f10x_exti.o)
                              C:\Program Files (x86)\Intelitek\easyC V4 for Cortex\#Tools\STM32F103VD\easyCRuntime\easyCRuntimeLib.lib(Interrupts.o) (EXTI_GetITStatus)
C:\Program Files (x86)\Intelitek\easyC V4 for Cortex\#Tools\STM32F103VD\easyCRuntime\easyCRuntimeLib.lib(stm32f10x_flash.o)
                              C:\Program Files (x86)\Intelitek\easyC V4 for Cortex\#Tools\STM32F103VD\easyCRuntime\easyCRuntimeLib.lib(Config.o) (FLASH_SetLatency)
C:\Program Files (x86)\Intelitek\easyC V4 for Cortex\#Tools\STM32F103VD\easyCRuntime\easyCRuntimeLib.lib(stm32f10x_gpio.o)
                              C:\Program Files (x86)\Intelitek\easyC V4 for Cortex\#Tools\STM32F103VD\easyCRuntime\easyCRuntimeLib.lib(Config.o) (GPIO_Init)
C:\Program Files (x86)\Intelitek\easyC V4 for Cortex\#Tools\STM32F103VD\easyCRuntime\easyCRuntimeLib.lib(stm32f10x_nvic.o)
                              C:\Program Files (x86)\Intelitek\easyC V4 for Cortex\#Tools\STM32F103VD\easyCRuntime\easyCRuntimeLib.lib(Config.o) (NVIC_PriorityGroupConfig)
C:\Program Files (x86)\Intelitek\easyC V4 for Cortex\#Tools\STM32F103VD\easyCRuntime\easyCRuntimeLib.lib(stm32f10x_rcc.o)
                              C:\Program Files (x86)\Intelitek\easyC V4 for Cortex\#Tools\STM32F103VD\easyCRuntime\easyCRuntimeLib.lib(Config.o) (RCC_DeInit)
C:\Program Files (x86)\Intelitek\easyC V4 for Cortex\#Tools\STM32F103VD\easyCRuntime\easyCRuntimeLib.lib(stm32f10x_spi.o)
                              C:\Program Files (x86)\Intelitek\easyC V4 for Cortex\#Tools\STM32F103VD\easyCRuntime\easyCRuntimeLib.lib(Config.o) (SPI_Init)
C:\Program Files (x86)\Intelitek\easyC V4 for Cortex\#Tools\STM32F103VD\easyCRuntime\easyCRuntimeLib.lib(stm32f10x_systick.o)
                              C:\Program Files (x86)\Intelitek\easyC V4 for Cortex\#Tools\STM32F103VD\easyCRuntime\easyCRuntimeLib.lib(Config.o) (SysTick_SetReload)
C:\Program Files (x86)\Intelitek\easyC V4 for Cortex\#Tools\STM32F103VD\easyCRuntime\easyCRuntimeLib.lib(stm32f10x_tim.o)
                              C:\Program Files (x86)\Intelitek\easyC V4 for Cortex\#Tools\STM32F103VD\easyCRuntime\easyCRuntimeLib.lib(Config.o) (TIM_TimeBaseInit)
C:\Program Files (x86)\Intelitek\easyC V4 for Cortex\#Tools\STM32F103VD\easyCRuntime\easyCRuntimeLib.lib(stm32f10x_usart.o)
                              C:\Program Files (x86)\Intelitek\easyC V4 for Cortex\#Tools\STM32F103VD\easyCRuntime\easyCRuntimeLib.lib(Config.o) (USART_Init)
C:\Program Files (x86)\Intelitek\easyC V4 for Cortex\#Tools\STM32F103VD\easyCRuntime\easyCRuntimeLib.lib(cortexm3_macro.o)
                              C:\Program Files (x86)\Intelitek\easyC V4 for Cortex\#Tools\STM32F103VD\easyCRuntime\easyCRuntimeLib.lib(stm32f10x_nvic.o) (__RESETPRIMASK)
C:\Program Files (x86)\Intelitek\easyC V4 for Cortex\#Tools\STM32F103VD\Link\STM32x_io_putchar_thumb.a(syscalls.o)
                              (_write)
C:\Program Files (x86)\Intelitek\easyC V4 for Cortex\#Tools\STM32F103VD\Link\e_stdio_thumb.a(_sp_printf.o)
                              C:\Program Files (x86)\Intelitek\easyC V4 for Cortex\#Tools\STM32F103VD\easyCRuntime\easyCRuntimeLib.lib(Comm.o) (printf)
C:\Program Files (x86)\Intelitek\easyC V4 for Cortex\#Tools\STM32F103VD\Link\e_stdio_thumb.a(_sp_vfprintf.o)
                              C:\Program Files (x86)\Intelitek\easyC V4 for Cortex\#Tools\STM32F103VD\easyCRuntime\easyCRuntimeLib.lib(Print.o) (vfprintf)
C:\Program Files (x86)\Intelitek\easyC V4 for Cortex\#Tools\STM32F103VD\Link\e_stdio_thumb.a(_sp_puts.o)
                              C:\Program Files (x86)\Intelitek\easyC V4 for Cortex\#Tools\STM32F103VD\Link\e_stdio_thumb.a(_sp_vfprintf.o) (_SMALL_PRINTF_puts)
C:\Program Files (x86)\Intelitek\easyC V4 for Cortex\#Tools\STM32F103VD\Link\e_stdio_thumb.a(_sp_sprintf.o)
                              C:\Program Files (x86)\Intelitek\easyC V4 for Cortex\#Tools\STM32F103VD\easyCRuntime\easyCRuntimeLib.lib(Clock.o) (sprintf)
C:\Program Files (x86)\Intelitek\easyC V4 for Cortex\#Tools\STM32F103VD\Link\e_stdio_thumb.a(small_dtoa.o)
                              C:\Program Files (x86)\Intelitek\easyC V4 for Cortex\#Tools\STM32F103VD\Link\e_stdio_thumb.a(_sp_vfprintf.o) (_dtoa_r)
C:\Program Files (x86)\Intelitek\easyC V4 for Cortex\#Tools\STM32F103VD\Link\e_stdio_thumb.a(small_wcsrtombs.o)
                              C:\Program Files (x86)\Intelitek\easyC V4 for Cortex\#Tools\STM32F103VD\Link\e_stdio_thumb.a(_sp_vfprintf.o) (_wcsrtombs_r)
C:\Program Files (x86)\Intelitek\easyC V4 for Cortex\#Tools\STM32F103VD\Link\e_stdio_thumb.a(small_wcrtomb.o)
                              C:\Program Files (x86)\Intelitek\easyC V4 for Cortex\#Tools\STM32F103VD\Link\e_stdio_thumb.a(_sp_vfprintf.o) (_wcrtomb_r)
C:\Program Files (x86)\Intelitek\easyC V4 for Cortex\#Tools\STM32F103VD\Link\e_stdio_thumb.a(small_mprec.o)
                              C:\Program Files (x86)\Intelitek\easyC V4 for Cortex\#Tools\STM32F103VD\Link\e_stdio_thumb.a(small_dtoa.o) (_small_hi0bits)
c:/program files (x86)/intelitek/easyc v4 for cortex/#tools/arm-gcc/bin/../lib/gcc/arm-none-eabi/4.3.2/../../../../arm-none-eabi/lib/thumb2\libc.a(lib_a-abort.o)
                              C:\Program Files (x86)\Intelitek\easyC V4 for Cortex\#Tools\STM32F103VD\Link\STM32x_io_putchar_thumb.a(syscalls.o) (abort)
c:/program files (x86)/intelitek/easyc v4 for cortex/#tools/arm-gcc/bin/../lib/gcc/arm-none-eabi/4.3.2/../../../../arm-none-eabi/lib/thumb2\libc.a(lib_a-errno.o)
                              C:\Program Files (x86)\Intelitek\easyC V4 for Cortex\#Tools\STM32F103VD\Link\STM32x_io_putchar_thumb.a(syscalls.o) (__errno)
c:/program files (x86)/intelitek/easyc v4 for cortex/#tools/arm-gcc/bin/../lib/gcc/arm-none-eabi/4.3.2/../../../../arm-none-eabi/lib/thumb2\libc.a(lib_a-impure.o)
                              C:\Program Files (x86)\Intelitek\easyC V4 for Cortex\#Tools\STM32F103VD\easyCRuntime\easyCRuntimeLib.lib(Print.o) (_impure_ptr)
c:/program files (x86)/intelitek/easyc v4 for cortex/#tools/arm-gcc/bin/../lib/gcc/arm-none-eabi/4.3.2/../../../../arm-none-eabi/lib/thumb2\libc.a(lib_a-memchr.o)
                              C:\Program Files (x86)\Intelitek\easyC V4 for Cortex\#Tools\STM32F103VD\Link\e_stdio_thumb.a(_sp_vfprintf.o) (memchr)
c:/program files (x86)/intelitek/easyc v4 for cortex/#tools/arm-gcc/bin/../lib/gcc/arm-none-eabi/4.3.2/../../../../arm-none-eabi/lib/thumb2\libc.a(lib_a-memcpy.o)
                              C:\Program Files (x86)\Intelitek\easyC V4 for Cortex\#Tools\STM32F103VD\Link\e_stdio_thumb.a(small_dtoa.o) (memcpy)
c:/program files (x86)/intelitek/easyc v4 for cortex/#tools/arm-gcc/bin/../lib/gcc/arm-none-eabi/4.3.2/../../../../arm-none-eabi/lib/thumb2\libc.a(lib_a-memset.o)
                              C:\Program Files (x86)\Intelitek\easyC V4 for Cortex\#Tools\STM32F103VD\easyCRuntime\easyCRuntimeLib.lib(Clock.o) (memset)
c:/program files (x86)/intelitek/easyc v4 for cortex/#tools/arm-gcc/bin/../lib/gcc/arm-none-eabi/4.3.2/../../../../arm-none-eabi/lib/thumb2\libc.a(lib_a-s_isinfd.o)
                              C:\Program Files (x86)\Intelitek\easyC V4 for Cortex\#Tools\STM32F103VD\Link\e_stdio_thumb.a(_sp_vfprintf.o) (__isinfd)
c:/program files (x86)/intelitek/easyc v4 for cortex/#tools/arm-gcc/bin/../lib/gcc/arm-none-eabi/4.3.2/../../../../arm-none-eabi/lib/thumb2\libc.a(lib_a-s_isnand.o)
                              C:\Program Files (x86)\Intelitek\easyC V4 for Cortex\#Tools\STM32F103VD\Link\e_stdio_thumb.a(_sp_vfprintf.o) (__isnand)
c:/program files (x86)/intelitek/easyc v4 for cortex/#tools/arm-gcc/bin/../lib/gcc/arm-none-eabi/4.3.2/../../../../arm-none-eabi/lib/thumb2\libc.a(lib_a-signal.o)
                              c:/program files (x86)/intelitek/easyc v4 for cortex/#tools/arm-gcc/bin/../lib/gcc/arm-none-eabi/4.3.2/../../../../arm-none-eabi/lib/thumb2\libc.a(lib_a-abort.o) (raise)
c:/program files (x86)/intelitek/easyc v4 for cortex/#tools/arm-gcc/bin/../lib/gcc/arm-none-eabi/4.3.2/../../../../arm-none-eabi/lib/thumb2\libc.a(lib_a-signalr.o)
                              c:/program files (x86)/intelitek/easyc v4 for cortex/#tools/arm-gcc/bin/../lib/gcc/arm-none-eabi/4.3.2/../../../../arm-none-eabi/lib/thumb2\libc.a(lib_a-signal.o) (_getpid_r)
c:/program files (x86)/intelitek/easyc v4 for cortex/#tools/arm-gcc/bin/../lib/gcc/arm-none-eabi/4.3.2/../../../../arm-none-eabi/lib/thumb2\libc.a(lib_a-strlen.o)
                              C:\Program Files (x86)\Intelitek\easyC V4 for Cortex\#Tools\STM32F103VD\easyCRuntime\easyCRuntimeLib.lib(easyCRuntime.o) (strlen)
c:/program files (x86)/intelitek/easyc v4 for cortex/#tools/arm-gcc/bin/../lib/gcc/arm-none-eabi/4.3.2/../../../../arm-none-eabi/lib/thumb2\libc.a(lib_a-vsprintf.o)
                              C:\Program Files (x86)\Intelitek\easyC V4 for Cortex\#Tools\STM32F103VD\easyCRuntime\easyCRuntimeLib.lib(SerialPorts.o) (vsprintf)
c:/program files (x86)/intelitek/easyc v4 for cortex/#tools/arm-gcc/bin/../lib/gcc/arm-none-eabi/4.3.2/../../../../arm-none-eabi/lib/thumb2\libc.a(lib_a-mallocr.o)
                              c:/program files (x86)/intelitek/easyc v4 for cortex/#tools/arm-gcc/bin/../lib/gcc/arm-none-eabi/4.3.2/../../../../arm-none-eabi/lib/thumb2\libc.a(lib_a-signal.o) (_malloc_r)
c:/program files (x86)/intelitek/easyc v4 for cortex/#tools/arm-gcc/bin/../lib/gcc/arm-none-eabi/4.3.2/../../../../arm-none-eabi/lib/thumb2\libc.a(lib_a-mlock.o)
                              c:/program files (x86)/intelitek/easyc v4 for cortex/#tools/arm-gcc/bin/../lib/gcc/arm-none-eabi/4.3.2/../../../../arm-none-eabi/lib/thumb2\libc.a(lib_a-mallocr.o) (__malloc_lock)
c:/program files (x86)/intelitek/easyc v4 for cortex/#tools/arm-gcc/bin/../lib/gcc/arm-none-eabi/4.3.2/../../../../arm-none-eabi/lib/thumb2\libc.a(lib_a-reent.o)
                              c:/program files (x86)/intelitek/easyc v4 for cortex/#tools/arm-gcc/bin/../lib/gcc/arm-none-eabi/4.3.2/../../../../arm-none-eabi/lib/thumb2\libc.a(lib_a-signalr.o) (errno)
c:/program files (x86)/intelitek/easyc v4 for cortex/#tools/arm-gcc/bin/../lib/gcc/arm-none-eabi/4.3.2/../../../../arm-none-eabi/lib/thumb2\libc.a(lib_a-sbrkr.o)
                              c:/program files (x86)/intelitek/easyc v4 for cortex/#tools/arm-gcc/bin/../lib/gcc/arm-none-eabi/4.3.2/../../../../arm-none-eabi/lib/thumb2\libc.a(lib_a-mallocr.o) (_sbrk_r)
c:/program files (x86)/intelitek/easyc v4 for cortex/#tools/arm-gcc/bin/../lib/gcc/arm-none-eabi/4.3.2/../../../../arm-none-eabi/lib/thumb2\libc.a(lib_a-freer.o)
                              c:/program files (x86)/intelitek/easyc v4 for cortex/#tools/arm-gcc/bin/../lib/gcc/arm-none-eabi/4.3.2/../../../../arm-none-eabi/lib/thumb2\libc.a(lib_a-mallocr.o) (_free_r)
c:/program files (x86)/intelitek/easyc v4 for cortex/#tools/arm-gcc/bin/../lib/gcc/arm-none-eabi/4.3.2/thumb2\libgcc.a(_udivsi3.o)
                              C:\Program Files (x86)\Intelitek\easyC V4 for Cortex\#Tools\STM32F103VD\Link\e_stdio_thumb.a(_sp_vfprintf.o) (__aeabi_uidiv)
c:/program files (x86)/intelitek/easyc v4 for cortex/#tools/arm-gcc/bin/../lib/gcc/arm-none-eabi/4.3.2/thumb2\libgcc.a(_divsi3.o)
                              C:\Program Files (x86)\Intelitek\easyC V4 for Cortex\#Tools\STM32F103VD\Link\e_stdio_thumb.a(_sp_vfprintf.o) (__aeabi_idiv)
c:/program files (x86)/intelitek/easyc v4 for cortex/#tools/arm-gcc/bin/../lib/gcc/arm-none-eabi/4.3.2/thumb2\libgcc.a(_dvmd_tls.o)
                              c:/program files (x86)/intelitek/easyc v4 for cortex/#tools/arm-gcc/bin/../lib/gcc/arm-none-eabi/4.3.2/thumb2\libgcc.a(_udivsi3.o) (__aeabi_idiv0)
c:/program files (x86)/intelitek/easyc v4 for cortex/#tools/arm-gcc/bin/../lib/gcc/arm-none-eabi/4.3.2/thumb2\libgcc.a(_arm_addsubdf3.o)
                              C:\Program Files (x86)\Intelitek\easyC V4 for Cortex\#Tools\STM32F103VD\Link\e_stdio_thumb.a(small_dtoa.o) (__aeabi_dsub)
c:/program files (x86)/intelitek/easyc v4 for cortex/#tools/arm-gcc/bin/../lib/gcc/arm-none-eabi/4.3.2/thumb2\libgcc.a(_arm_muldivdf3.o)
                              C:\Program Files (x86)\Intelitek\easyC V4 for Cortex\#Tools\STM32F103VD\easyCRuntime\easyCRuntimeLib.lib(easyCRuntime.o) (__aeabi_dmul)
c:/program files (x86)/intelitek/easyc v4 for cortex/#tools/arm-gcc/bin/../lib/gcc/arm-none-eabi/4.3.2/thumb2\libgcc.a(_arm_cmpdf2.o)
                              C:\Program Files (x86)\Intelitek\easyC V4 for Cortex\#Tools\STM32F103VD\Link\e_stdio_thumb.a(_sp_vfprintf.o) (__aeabi_dcmpeq)
c:/program files (x86)/intelitek/easyc v4 for cortex/#tools/arm-gcc/bin/../lib/gcc/arm-none-eabi/4.3.2/thumb2\libgcc.a(_arm_fixdfsi.o)
                              C:\Program Files (x86)\Intelitek\easyC V4 for Cortex\#Tools\STM32F103VD\Link\e_stdio_thumb.a(small_dtoa.o) (__aeabi_d2iz)
c:/program files (x86)/intelitek/easyc v4 for cortex/#tools/arm-gcc/bin/../lib/gcc/arm-none-eabi/4.3.2/thumb2\libgcc.a(_arm_truncdfsf2.o)
                              C:\Program Files (x86)\Intelitek\easyC V4 for Cortex\#Tools\STM32F103VD\easyCRuntime\easyCRuntimeLib.lib(easyCRuntime.o) (__aeabi_d2f)
c:/program files (x86)/intelitek/easyc v4 for cortex/#tools/arm-gcc/bin/../lib/gcc/arm-none-eabi/4.3.2/thumb2\libgcc.a(_arm_addsubsf3.o)
                              C:\Program Files (x86)\Intelitek\easyC V4 for Cortex\#Tools\STM32F103VD\easyCRuntime\easyCRuntimeLib.lib(Comm.o) (__aeabi_ui2f)
c:/program files (x86)/intelitek/easyc v4 for cortex/#tools/arm-gcc/bin/../lib/gcc/arm-none-eabi/4.3.2/thumb2\libgcc.a(_arm_muldivsf3.o)
                              C:\Program Files (x86)\Intelitek\easyC V4 for Cortex\#Tools\STM32F103VD\easyCRuntime\easyCRuntimeLib.lib(Comm.o) (__aeabi_fdiv)
c:/program files (x86)/intelitek/easyc v4 for cortex/#tools/arm-gcc/bin/../lib/gcc/arm-none-eabi/4.3.2/thumb2\libgcc.a(_arm_cmpsf2.o)
                              C:\Program Files (x86)\Intelitek\easyC V4 for Cortex\#Tools\STM32F103VD\easyCRuntime\easyCRuntimeLib.lib(easyCRuntime.o) (__aeabi_fcmplt)
c:/program files (x86)/intelitek/easyc v4 for cortex/#tools/arm-gcc/bin/../lib/gcc/arm-none-eabi/4.3.2/thumb2\libgcc.a(_arm_fixunssfsi.o)
                              C:\Program Files (x86)\Intelitek\easyC V4 for Cortex\#Tools\STM32F103VD\easyCRuntime\easyCRuntimeLib.lib(Comm.o) (__aeabi_f2uiz)

Allocating common symbols
Common symbol       size              file

pwm1                0x28              C:\Program Files (x86)\Intelitek\easyC V4 for Cortex\#Tools\STM32F103VD\easyCRuntime\easyCRuntimeLib.lib(Clock.o)
pwm2                0x28              C:\Program Files (x86)\Intelitek\easyC V4 for Cortex\#Tools\STM32F103VD\easyCRuntime\easyCRuntimeLib.lib(Clock.o)
errno               0x4               c:/program files (x86)/intelitek/easyc v4 for cortex/#tools/arm-gcc/bin/../lib/gcc/arm-none-eabi/4.3.2/../../../../arm-none-eabi/lib/thumb2\libc.a(lib_a-reent.o)
slaveJoystick1      0xc               C:\Program Files (x86)\Intelitek\easyC V4 for Cortex\#Tools\STM32F103VD\easyCRuntime\easyCRuntimeLib.lib(Comm.o)
szTeamInfo          0x8               C:\Program Files (x86)\Intelitek\easyC V4 for Cortex\#Tools\STM32F103VD\easyCRuntime\easyCRuntimeLib.lib(easyCRuntime.o)
rx1                 0x40              C:\Program Files (x86)\Intelitek\easyC V4 for Cortex\#Tools\STM32F103VD\easyCRuntime\easyCRuntimeLib.lib(Comm.o)
udpFrameIn          0x24              C:\Program Files (x86)\Intelitek\easyC V4 for Cortex\#Tools\STM32F103VD\easyCRuntime\easyCRuntimeLib.lib(SerialPorts.o)
rx2                 0x40              C:\Program Files (x86)\Intelitek\easyC V4 for Cortex\#Tools\STM32F103VD\easyCRuntime\easyCRuntimeLib.lib(Comm.o)
SPI1_Buffer_Tx      0x40              C:\Program Files (x86)\Intelitek\easyC V4 for Cortex\#Tools\STM32F103VD\easyCRuntime\easyCRuntimeLib.lib(Comm.o)
SPI1_Buffer_Rx      0x40              C:\Program Files (x86)\Intelitek\easyC V4 for Cortex\#Tools\STM32F103VD\easyCRuntime\easyCRuntimeLib.lib(Comm.o)
slaveJoystick2      0xc               C:\Program Files (x86)\Intelitek\easyC V4 for Cortex\#Tools\STM32F103VD\easyCRuntime\easyCRuntimeLib.lib(Comm.o)

Discarded input sections

 .text          0x00000000        0x0 C:\Program Files (x86)\Intelitek\easyC V4 for Cortex\#Tools\STM32F103VD\Startup\Startup.o
 .data          0x00000000        0x0 C:\Program Files (x86)\Intelitek\easyC V4 for Cortex\#Tools\STM32F103VD\Startup\Startup.o
 .text          0x00000000        0x0 C:\Users\Vex-Laptop02\AppData\Roaming\Intelitek\easyC V4 for Cortex\Temp\Main.o
 .data          0x00000000        0x0 C:\Users\Vex-Laptop02\AppData\Roaming\Intelitek\easyC V4 for Cortex\Temp\Main.o
 .bss           0x00000000        0x0 C:\Users\Vex-Laptop02\AppData\Roaming\Intelitek\easyC V4 for Cortex\Temp\Main.o
 .text          0x00000000        0x0 C:\Users\Vex-Laptop02\AppData\Roaming\Intelitek\easyC V4 for Cortex\Temp\MainIO.o
 .data          0x00000000        0x0 C:\Users\Vex-Laptop02\AppData\Roaming\Intelitek\easyC V4 for Cortex\Temp\MainIO.o
 .bss           0x00000000        0x0 C:\Users\Vex-Laptop02\AppData\Roaming\Intelitek\easyC V4 for Cortex\Temp\MainIO.o
 .text          0x00000000        0x0 C:\Users\Vex-Laptop02\AppData\Roaming\Intelitek\easyC V4 for Cortex\Temp\Globals.o
 .data          0x00000000        0x0 C:\Users\Vex-Laptop02\AppData\Roaming\Intelitek\easyC V4 for Cortex\Temp\Globals.o
 .bss           0x00000000        0x0 C:\Users\Vex-Laptop02\AppData\Roaming\Intelitek\easyC V4 for Cortex\Temp\Globals.o
 .text          0x00000000        0x0 C:\Users\Vex-Laptop02\AppData\Roaming\Intelitek\easyC V4 for Cortex\Temp\Initialize.o
 .data          0x00000000        0x0 C:\Users\Vex-Laptop02\AppData\Roaming\Intelitek\easyC V4 for Cortex\Temp\Initialize.o
 .bss           0x00000000        0x0 C:\Users\Vex-Laptop02\AppData\Roaming\Intelitek\easyC V4 for Cortex\Temp\Initialize.o
 .text          0x00000000        0x0 C:\Users\Vex-Laptop02\AppData\Roaming\Intelitek\easyC V4 for Cortex\Temp\Autonomous.o
 .data          0x00000000        0x0 C:\Users\Vex-Laptop02\AppData\Roaming\Intelitek\easyC V4 for Cortex\Temp\Autonomous.o
 .bss           0x00000000        0x0 C:\Users\Vex-Laptop02\AppData\Roaming\Intelitek\easyC V4 for Cortex\Temp\Autonomous.o
 .text          0x00000000        0x0 C:\Users\Vex-Laptop02\AppData\Roaming\Intelitek\easyC V4 for Cortex\Temp\OperatorControl.o
 .data          0x00000000        0x0 C:\Users\Vex-Laptop02\AppData\Roaming\Intelitek\easyC V4 for Cortex\Temp\OperatorControl.o
 .bss           0x00000000        0x0 C:\Users\Vex-Laptop02\AppData\Roaming\Intelitek\easyC V4 for Cortex\Temp\OperatorControl.o
 .text          0x00000000        0x0 C:\Users\Vex-Laptop02\AppData\Roaming\Intelitek\easyC V4 for Cortex\Temp\moveBack.o
 .data          0x00000000        0x0 C:\Users\Vex-Laptop02\AppData\Roaming\Intelitek\easyC V4 for Cortex\Temp\moveBack.o
 .bss           0x00000000        0x0 C:\Users\Vex-Laptop02\AppData\Roaming\Intelitek\easyC V4 for Cortex\Temp\moveBack.o
 .text          0x00000000        0x0 C:\Users\Vex-Laptop02\AppData\Roaming\Intelitek\easyC V4 for Cortex\Temp\motorStop.o
 .data          0x00000000        0x0 C:\Users\Vex-Laptop02\AppData\Roaming\Intelitek\easyC V4 for Cortex\Temp\motorStop.o
 .bss           0x00000000        0x0 C:\Users\Vex-Laptop02\AppData\Roaming\Intelitek\easyC V4 for Cortex\Temp\motorStop.o
 .text          0x00000000        0x0 C:\Program Files (x86)\Intelitek\easyC V4 for Cortex\#Tools\STM32F103VD\easyCRuntime\easyCRuntimeLib.lib(easyCRuntime.o)
 .data          0x00000000        0x0 C:\Program Files (x86)\Intelitek\easyC V4 for Cortex\#Tools\STM32F103VD\easyCRuntime\easyCRuntimeLib.lib(easyCRuntime.o)
 .text.GetMainBattery
                0x00000000        0x0 C:\Program Files (x86)\Intelitek\easyC V4 for Cortex\#Tools\STM32F103VD\easyCRuntime\easyCRuntimeLib.lib(easyCRuntime.o)
 .text.GetBackupBattery
                0x00000000        0x0 C:\Program Files (x86)\Intelitek\easyC V4 for Cortex\#Tools\STM32F103VD\easyCRuntime\easyCRuntimeLib.lib(easyCRuntime.o)
 .text.SetDebugInfo
                0x00000000        0x0 C:\Program Files (x86)\Intelitek\easyC V4 for Cortex\#Tools\STM32F103VD\easyCRuntime\easyCRuntimeLib.lib(easyCRuntime.o)
 .text.IsOverrideMode
                0x00000000        0x0 C:\Program Files (x86)\Intelitek\easyC V4 for Cortex\#Tools\STM32F103VD\easyCRuntime\easyCRuntimeLib.lib(easyCRuntime.o)
 .text.GetSlaveVer
                0x00000000        0x0 C:\Program Files (x86)\Intelitek\easyC V4 for Cortex\#Tools\STM32F103VD\easyCRuntime\easyCRuntimeLib.lib(easyCRuntime.o)
 .text.GetMasterVer
                0x00000000        0x0 C:\Program Files (x86)\Intelitek\easyC V4 for Cortex\#Tools\STM32F103VD\easyCRuntime\easyCRuntimeLib.lib(easyCRuntime.o)
 .text          0x00000000        0x0 C:\Program Files (x86)\Intelitek\easyC V4 for Cortex\#Tools\STM32F103VD\easyCRuntime\easyCRuntimeLib.lib(Clock.o)
 .data          0x00000000        0x0 C:\Program Files (x86)\Intelitek\easyC V4 for Cortex\#Tools\STM32F103VD\easyCRuntime\easyCRuntimeLib.lib(Clock.o)
 .text.GetUsClock
                0x00000000        0x0 C:\Program Files (x86)\Intelitek\easyC V4 for Cortex\#Tools\STM32F103VD\easyCRuntime\easyCRuntimeLib.lib(Clock.o)
 .text.GetSecondClock
                0x00000000        0x0 C:\Program Files (x86)\Intelitek\easyC V4 for Cortex\#Tools\STM32F103VD\easyCRuntime\easyCRuntimeLib.lib(Clock.o)
 .text.CheckTimerRange
                0x00000000        0x0 C:\Program Files (x86)\Intelitek\easyC V4 for Cortex\#Tools\STM32F103VD\easyCRuntime\easyCRuntimeLib.lib(Clock.o)
 .text.StartTimer
                0x00000000        0x0 C:\Program Files (x86)\Intelitek\easyC V4 for Cortex\#Tools\STM32F103VD\easyCRuntime\easyCRuntimeLib.lib(Clock.o)
 .text.StopTimer
                0x00000000        0x0 C:\Program Files (x86)\Intelitek\easyC V4 for Cortex\#Tools\STM32F103VD\easyCRuntime\easyCRuntimeLib.lib(Clock.o)
 .text.PresetTimer
                0x00000000        0x0 C:\Program Files (x86)\Intelitek\easyC V4 for Cortex\#Tools\STM32F103VD\easyCRuntime\easyCRuntimeLib.lib(Clock.o)
 .text.GetTimer
                0x00000000        0x0 C:\Program Files (x86)\Intelitek\easyC V4 for Cortex\#Tools\STM32F103VD\easyCRuntime\easyCRuntimeLib.lib(Clock.o)
 .text.RegisterRepeatingTimer
                0x00000000        0x0 C:\Program Files (x86)\Intelitek\easyC V4 for Cortex\#Tools\STM32F103VD\easyCRuntime\easyCRuntimeLib.lib(Clock.o)
 .text.CancelTimer
                0x00000000        0x0 C:\Program Files (x86)\Intelitek\easyC V4 for Cortex\#Tools\STM32F103VD\easyCRuntime\easyCRuntimeLib.lib(Clock.o)
 .text          0x00000000        0x0 C:\Program Files (x86)\Intelitek\easyC V4 for Cortex\#Tools\STM32F103VD\easyCRuntime\easyCRuntimeLib.lib(Comm.o)
 .text.SPI_Debug
                0x00000000        0x0 C:\Program Files (x86)\Intelitek\easyC V4 for Cortex\#Tools\STM32F103VD\easyCRuntime\easyCRuntimeLib.lib(Comm.o)
 .text.Handle_Operator_Control
                0x00000000        0x0 C:\Program Files (x86)\Intelitek\easyC V4 for Cortex\#Tools\STM32F103VD\easyCRuntime\easyCRuntimeLib.lib(Comm.o)
 .text.Handle_Crystal
                0x00000000        0x0 C:\Program Files (x86)\Intelitek\easyC V4 for Cortex\#Tools\STM32F103VD\easyCRuntime\easyCRuntimeLib.lib(Comm.o)
 .text.Handle_Autonomous
                0x00000000        0x0 C:\Program Files (x86)\Intelitek\easyC V4 for Cortex\#Tools\STM32F103VD\easyCRuntime\easyCRuntimeLib.lib(Comm.o)
 .text          0x00000000        0x0 C:\Program Files (x86)\Intelitek\easyC V4 for Cortex\#Tools\STM32F103VD\easyCRuntime\easyCRuntimeLib.lib(Config.o)
 .data          0x00000000        0x0 C:\Program Files (x86)\Intelitek\easyC V4 for Cortex\#Tools\STM32F103VD\easyCRuntime\easyCRuntimeLib.lib(Config.o)
 .bss           0x00000000        0x0 C:\Program Files (x86)\Intelitek\easyC V4 for Cortex\#Tools\STM32F103VD\easyCRuntime\easyCRuntimeLib.lib(Config.o)
 .text          0x00000000        0x0 C:\Program Files (x86)\Intelitek\easyC V4 for Cortex\#Tools\STM32F103VD\easyCRuntime\easyCRuntimeLib.lib(InputOutput.o)
 .text.GetAnalogInputHR
                0x00000000        0x0 C:\Program Files (x86)\Intelitek\easyC V4 for Cortex\#Tools\STM32F103VD\easyCRuntime\easyCRuntimeLib.lib(InputOutput.o)
 .text          0x00000000        0x0 C:\Program Files (x86)\Intelitek\easyC V4 for Cortex\#Tools\STM32F103VD\easyCRuntime\easyCRuntimeLib.lib(Interrupts.o)
 .text.RegisterInterruptHandler
                0x00000000        0x0 C:\Program Files (x86)\Intelitek\easyC V4 for Cortex\#Tools\STM32F103VD\easyCRuntime\easyCRuntimeLib.lib(Interrupts.o)
 .text.SetInterruptEdge
                0x00000000        0x0 C:\Program Files (x86)\Intelitek\easyC V4 for Cortex\#Tools\STM32F103VD\easyCRuntime\easyCRuntimeLib.lib(Interrupts.o)
 .text          0x00000000        0x0 C:\Program Files (x86)\Intelitek\easyC V4 for Cortex\#Tools\STM32F103VD\easyCRuntime\easyCRuntimeLib.lib(Motors.o)
 .data          0x00000000        0x0 C:\Program Files (x86)\Intelitek\easyC V4 for Cortex\#Tools\STM32F103VD\easyCRuntime\easyCRuntimeLib.lib(Motors.o)
 .text.SetServo
                0x00000000        0x0 C:\Program Files (x86)\Intelitek\easyC V4 for Cortex\#Tools\STM32F103VD\easyCRuntime\easyCRuntimeLib.lib(Motors.o)
 .text.pwmLimit
                0x00000000        0x0 C:\Program Files (x86)\Intelitek\easyC V4 for Cortex\#Tools\STM32F103VD\easyCRuntime\easyCRuntimeLib.lib(Motors.o)
 .text.Tank2    0x00000000        0x0 C:\Program Files (x86)\Intelitek\easyC V4 for Cortex\#Tools\STM32F103VD\easyCRuntime\easyCRuntimeLib.lib(Motors.o)
 .text.Tank4    0x00000000        0x0 C:\Program Files (x86)\Intelitek\easyC V4 for Cortex\#Tools\STM32F103VD\easyCRuntime\easyCRuntimeLib.lib(Motors.o)
 .text.Arcade2  0x00000000        0x0 C:\Program Files (x86)\Intelitek\easyC V4 for Cortex\#Tools\STM32F103VD\easyCRuntime\easyCRuntimeLib.lib(Motors.o)
 .text.Arcade4  0x00000000        0x0 C:\Program Files (x86)\Intelitek\easyC V4 for Cortex\#Tools\STM32F103VD\easyCRuntime\easyCRuntimeLib.lib(Motors.o)
 .text          0x00000000        0x0 C:\Program Files (x86)\Intelitek\easyC V4 for Cortex\#Tools\STM32F103VD\easyCRuntime\easyCRuntimeLib.lib(OI.o)
 .bss           0x00000000        0x0 C:\Program Files (x86)\Intelitek\easyC V4 for Cortex\#Tools\STM32F103VD\easyCRuntime\easyCRuntimeLib.lib(OI.o)
 .text.GetJoystickData
                0x00000000        0x0 C:\Program Files (x86)\Intelitek\easyC V4 for Cortex\#Tools\STM32F103VD\easyCRuntime\easyCRuntimeLib.lib(OI.o)
 .text.SetJoystickAnalogDeadband
                0x00000000        0x0 C:\Program Files (x86)\Intelitek\easyC V4 for Cortex\#Tools\STM32F103VD\easyCRuntime\easyCRuntimeLib.lib(OI.o)
 .text.SetJoystickAccelDeadband
                0x00000000        0x0 C:\Program Files (x86)\Intelitek\easyC V4 for Cortex\#Tools\STM32F103VD\easyCRuntime\easyCRuntimeLib.lib(OI.o)
 .text.GetJoystickAccelerometer
                0x00000000        0x0 C:\Program Files (x86)\Intelitek\easyC V4 for Cortex\#Tools\STM32F103VD\easyCRuntime\easyCRuntimeLib.lib(OI.o)
 .text.GetJoystickAccelerometerEx
                0x00000000        0x0 C:\Program Files (x86)\Intelitek\easyC V4 for Cortex\#Tools\STM32F103VD\easyCRuntime\easyCRuntimeLib.lib(OI.o)
 .text.JoystickToServo
                0x00000000        0x0 C:\Program Files (x86)\Intelitek\easyC V4 for Cortex\#Tools\STM32F103VD\easyCRuntime\easyCRuntimeLib.lib(OI.o)
 .text.JoystickToMotorAndLimit
                0x00000000        0x0 C:\Program Files (x86)\Intelitek\easyC V4 for Cortex\#Tools\STM32F103VD\easyCRuntime\easyCRuntimeLib.lib(OI.o)
 .text.JoystickDigitalToServo
                0x00000000        0x0 C:\Program Files (x86)\Intelitek\easyC V4 for Cortex\#Tools\STM32F103VD\easyCRuntime\easyCRuntimeLib.lib(OI.o)
 .text.JoystickDigitalToMotorAndLimit
                0x00000000        0x0 C:\Program Files (x86)\Intelitek\easyC V4 for Cortex\#Tools\STM32F103VD\easyCRuntime\easyCRuntimeLib.lib(OI.o)
 .text.JoystickToDigitalOutput
                0x00000000        0x0 C:\Program Files (x86)\Intelitek\easyC V4 for Cortex\#Tools\STM32F103VD\easyCRuntime\easyCRuntimeLib.lib(OI.o)
 .text.JoystickToDigitalLatch
                0x00000000        0x0 C:\Program Files (x86)\Intelitek\easyC V4 for Cortex\#Tools\STM32F103VD\easyCRuntime\easyCRuntimeLib.lib(OI.o)
 .text          0x00000000        0x0 C:\Program Files (x86)\Intelitek\easyC V4 for Cortex\#Tools\STM32F103VD\easyCRuntime\easyCRuntimeLib.lib(Print.o)
 .data          0x00000000        0x0 C:\Program Files (x86)\Intelitek\easyC V4 for Cortex\#Tools\STM32F103VD\easyCRuntime\easyCRuntimeLib.lib(Print.o)
 .bss           0x00000000        0x0 C:\Program Files (x86)\Intelitek\easyC V4 for Cortex\#Tools\STM32F103VD\easyCRuntime\easyCRuntimeLib.lib(Print.o)
 .text.SetGDWaitTime
                0x00000000        0x0 C:\Program Files (x86)\Intelitek\easyC V4 for Cortex\#Tools\STM32F103VD\easyCRuntime\easyCRuntimeLib.lib(Print.o)
 .rodata        0x00000000        0x0 C:\Program Files (x86)\Intelitek\easyC V4 for Cortex\#Tools\STM32F103VD\easyCRuntime\easyCRuntimeLib.lib(Print.o)
 .text.ResetGD  0x00000000        0x0 C:\Program Files (x86)\Intelitek\easyC V4 for Cortex\#Tools\STM32F103VD\easyCRuntime\easyCRuntimeLib.lib(Print.o)
 .text.ClearGD  0x00000000        0x0 C:\Program Files (x86)\Intelitek\easyC V4 for Cortex\#Tools\STM32F103VD\easyCRuntime\easyCRuntimeLib.lib(Print.o)
 .text.PrintTextToGD
                0x00000000        0x0 C:\Program Files (x86)\Intelitek\easyC V4 for Cortex\#Tools\STM32F103VD\easyCRuntime\easyCRuntimeLib.lib(Print.o)
 .text.PrintFrameToGD
                0x00000000        0x0 C:\Program Files (x86)\Intelitek\easyC V4 for Cortex\#Tools\STM32F103VD\easyCRuntime\easyCRuntimeLib.lib(Print.o)
 .text          0x00000000        0x0 C:\Program Files (x86)\Intelitek\easyC V4 for Cortex\#Tools\STM32F103VD\easyCRuntime\easyCRuntimeLib.lib(stm32f10x_it.o)
 .data          0x00000000        0x0 C:\Program Files (x86)\Intelitek\easyC V4 for Cortex\#Tools\STM32F103VD\easyCRuntime\easyCRuntimeLib.lib(stm32f10x_it.o)
 .text          0x00000000        0x0 C:\Program Files (x86)\Intelitek\easyC V4 for Cortex\#Tools\STM32F103VD\easyCRuntime\easyCRuntimeLib.lib(ddt_support.o)
 .data          0x00000000        0x0 C:\Program Files (x86)\Intelitek\easyC V4 for Cortex\#Tools\STM32F103VD\easyCRuntime\easyCRuntimeLib.lib(ddt_support.o)
 .text          0x00000000        0x0 C:\Program Files (x86)\Intelitek\easyC V4 for Cortex\#Tools\STM32F103VD\easyCRuntime\easyCRuntimeLib.lib(SerialPorts.o)
 .data          0x00000000        0x0 C:\Program Files (x86)\Intelitek\easyC V4 for Cortex\#Tools\STM32F103VD\easyCRuntime\easyCRuntimeLib.lib(SerialPorts.o)
 .rodata        0x00000000        0x0 C:\Program Files (x86)\Intelitek\easyC V4 for Cortex\#Tools\STM32F103VD\easyCRuntime\easyCRuntimeLib.lib(SerialPorts.o)
 .text.OpenSerialPortEx
                0x00000000        0x0 C:\Program Files (x86)\Intelitek\easyC V4 for Cortex\#Tools\STM32F103VD\easyCRuntime\easyCRuntimeLib.lib(SerialPorts.o)
 .text.OpenSerialPort
                0x00000000        0x0 C:\Program Files (x86)\Intelitek\easyC V4 for Cortex\#Tools\STM32F103VD\easyCRuntime\easyCRuntimeLib.lib(SerialPorts.o)
 .text.WriteSerialPort
                0x00000000        0x0 C:\Program Files (x86)\Intelitek\easyC V4 for Cortex\#Tools\STM32F103VD\easyCRuntime\easyCRuntimeLib.lib(SerialPorts.o)
 .text.WriteSerialPortString
                0x00000000        0x0 C:\Program Files (x86)\Intelitek\easyC V4 for Cortex\#Tools\STM32F103VD\easyCRuntime\easyCRuntimeLib.lib(SerialPorts.o)
 .text.ReadSerialPort
                0x00000000        0x0 C:\Program Files (x86)\Intelitek\easyC V4 for Cortex\#Tools\STM32F103VD\easyCRuntime\easyCRuntimeLib.lib(SerialPorts.o)
 .text.GetSerialPortByteCount
                0x00000000        0x0 C:\Program Files (x86)\Intelitek\easyC V4 for Cortex\#Tools\STM32F103VD\easyCRuntime\easyCRuntimeLib.lib(SerialPorts.o)
 .text.RegisterUsartRxHandler
                0x00000000        0x0 C:\Program Files (x86)\Intelitek\easyC V4 for Cortex\#Tools\STM32F103VD\easyCRuntime\easyCRuntimeLib.lib(SerialPorts.o)
 .text.CheckUsartPort
                0x00000000        0x0 C:\Program Files (x86)\Intelitek\easyC V4 for Cortex\#Tools\STM32F103VD\easyCRuntime\easyCRuntimeLib.lib(SerialPorts.o)
 .text.UpdateLCD
                0x00000000        0x0 C:\Program Files (x86)\Intelitek\easyC V4 for Cortex\#Tools\STM32F103VD\easyCRuntime\easyCRuntimeLib.lib(SerialPorts.o)
 .text.HandlerLCDButtons
                0x00000000        0x0 C:\Program Files (x86)\Intelitek\easyC V4 for Cortex\#Tools\STM32F103VD\easyCRuntime\easyCRuntimeLib.lib(SerialPorts.o)
 .text.StartLCDButtonsWatcher
                0x00000000        0x0 C:\Program Files (x86)\Intelitek\easyC V4 for Cortex\#Tools\STM32F103VD\easyCRuntime\easyCRuntimeLib.lib(SerialPorts.o)
 .text.StopLCDButtonsWatcher
                0x00000000        0x0 C:\Program Files (x86)\Intelitek\easyC V4 for Cortex\#Tools\STM32F103VD\easyCRuntime\easyCRuntimeLib.lib(SerialPorts.o)
 .text.GetLCDButtonsWatcher
                0x00000000        0x0 C:\Program Files (x86)\Intelitek\easyC V4 for Cortex\#Tools\STM32F103VD\easyCRuntime\easyCRuntimeLib.lib(SerialPorts.o)
 .text.InitLCD  0x00000000        0x0 C:\Program Files (x86)\Intelitek\easyC V4 for Cortex\#Tools\STM32F103VD\easyCRuntime\easyCRuntimeLib.lib(SerialPorts.o)
 .text.SetLCDText
                0x00000000        0x0 C:\Program Files (x86)\Intelitek\easyC V4 for Cortex\#Tools\STM32F103VD\easyCRuntime\easyCRuntimeLib.lib(SerialPorts.o)
 .text.SetLCDLight
                0x00000000        0x0 C:\Program Files (x86)\Intelitek\easyC V4 for Cortex\#Tools\STM32F103VD\easyCRuntime\easyCRuntimeLib.lib(SerialPorts.o)
 COMMON         0x00000000        0x0 C:\Program Files (x86)\Intelitek\easyC V4 for Cortex\#Tools\STM32F103VD\easyCRuntime\easyCRuntimeLib.lib(SerialPorts.o)
 .text          0x00000000        0x0 C:\Program Files (x86)\Intelitek\easyC V4 for Cortex\#Tools\STM32F103VD\easyCRuntime\easyCRuntimeLib.lib(stm32f10x_adc.o)
 .data          0x00000000        0x0 C:\Program Files (x86)\Intelitek\easyC V4 for Cortex\#Tools\STM32F103VD\easyCRuntime\easyCRuntimeLib.lib(stm32f10x_adc.o)
 .bss           0x00000000        0x0 C:\Program Files (x86)\Intelitek\easyC V4 for Cortex\#Tools\STM32F103VD\easyCRuntime\easyCRuntimeLib.lib(stm32f10x_adc.o)
 .text.ADC_StructInit
                0x00000000        0x0 C:\Program Files (x86)\Intelitek\easyC V4 for Cortex\#Tools\STM32F103VD\easyCRuntime\easyCRuntimeLib.lib(stm32f10x_adc.o)
 .text.ADC_ITConfig
                0x00000000        0x0 C:\Program Files (x86)\Intelitek\easyC V4 for Cortex\#Tools\STM32F103VD\easyCRuntime\easyCRuntimeLib.lib(stm32f10x_adc.o)
 .text.ADC_GetSoftwareStartConvStatus
                0x00000000        0x0 C:\Program Files (x86)\Intelitek\easyC V4 for Cortex\#Tools\STM32F103VD\easyCRuntime\easyCRuntimeLib.lib(stm32f10x_adc.o)
 .text.ADC_DiscModeChannelCountConfig
                0x00000000        0x0 C:\Program Files (x86)\Intelitek\easyC V4 for Cortex\#Tools\STM32F103VD\easyCRuntime\easyCRuntimeLib.lib(stm32f10x_adc.o)
 .text.ADC_DiscModeCmd
                0x00000000        0x0 C:\Program Files (x86)\Intelitek\easyC V4 for Cortex\#Tools\STM32F103VD\easyCRuntime\easyCRuntimeLib.lib(stm32f10x_adc.o)
 .text.ADC_ExternalTrigConvCmd
                0x00000000        0x0 C:\Program Files (x86)\Intelitek\easyC V4 for Cortex\#Tools\STM32F103VD\easyCRuntime\easyCRuntimeLib.lib(stm32f10x_adc.o)
 .text.ADC_GetConversionValue
                0x00000000        0x0 C:\Program Files (x86)\Intelitek\easyC V4 for Cortex\#Tools\STM32F103VD\easyCRuntime\easyCRuntimeLib.lib(stm32f10x_adc.o)
 .text.ADC_GetDualModeConversionValue
                0x00000000        0x0 C:\Program Files (x86)\Intelitek\easyC V4 for Cortex\#Tools\STM32F103VD\easyCRuntime\easyCRuntimeLib.lib(stm32f10x_adc.o)
 .text.ADC_AutoInjectedConvCmd
                0x00000000        0x0 C:\Program Files (x86)\Intelitek\easyC V4 for Cortex\#Tools\STM32F103VD\easyCRuntime\easyCRuntimeLib.lib(stm32f10x_adc.o)
 .text.ADC_InjectedDiscModeCmd
                0x00000000        0x0 C:\Program Files (x86)\Intelitek\easyC V4 for Cortex\#Tools\STM32F103VD\easyCRuntime\easyCRuntimeLib.lib(stm32f10x_adc.o)
 .text.ADC_ExternalTrigInjectedConvConfig
                0x00000000        0x0 C:\Program Files (x86)\Intelitek\easyC V4 for Cortex\#Tools\STM32F103VD\easyCRuntime\easyCRuntimeLib.lib(stm32f10x_adc.o)
 .text.ADC_ExternalTrigInjectedConvCmd
                0x00000000        0x0 C:\Program Files (x86)\Intelitek\easyC V4 for Cortex\#Tools\STM32F103VD\easyCRuntime\easyCRuntimeLib.lib(stm32f10x_adc.o)
 .text.ADC_SoftwareStartInjectedConvCmd
                0x00000000        0x0 C:\Program Files (x86)\Intelitek\easyC V4 for Cortex\#Tools\STM32F103VD\easyCRuntime\easyCRuntimeLib.lib(stm32f10x_adc.o)
 .text.ADC_GetSoftwareStartInjectedConvCmdStatus
                0x00000000        0x0 C:\Program Files (x86)\Intelitek\easyC V4 for Cortex\#Tools\STM32F103VD\easyCRuntime\easyCRuntimeLib.lib(stm32f10x_adc.o)
 .text.ADC_InjectedChannelConfig
                0x00000000        0x0 C:\Program Files (x86)\Intelitek\easyC V4 for Cortex\#Tools\STM32F103VD\easyCRuntime\easyCRuntimeLib.lib(stm32f10x_adc.o)
 .text.ADC_InjectedSequencerLengthConfig
                0x00000000        0x0 C:\Program Files (x86)\Intelitek\easyC V4 for Cortex\#Tools\STM32F103VD\easyCRuntime\easyCRuntimeLib.lib(stm32f10x_adc.o)
 .text.ADC_SetInjectedOffset
                0x00000000        0x0 C:\Program Files (x86)\Intelitek\easyC V4 for Cortex\#Tools\STM32F103VD\easyCRuntime\easyCRuntimeLib.lib(stm32f10x_adc.o)
 .text.ADC_GetInjectedConversionValue
                0x00000000        0x0 C:\Program Files (x86)\Intelitek\easyC V4 for Cortex\#Tools\STM32F103VD\easyCRuntime\easyCRuntimeLib.lib(stm32f10x_adc.o)
 .text.ADC_AnalogWatchdogCmd
                0x00000000        0x0 C:\Program Files (x86)\Intelitek\easyC V4 for Cortex\#Tools\STM32F103VD\easyCRuntime\easyCRuntimeLib.lib(stm32f10x_adc.o)
 .text.ADC_AnalogWatchdogThresholdsConfig
                0x00000000        0x0 C:\Program Files (x86)\Intelitek\easyC V4 for Cortex\#Tools\STM32F103VD\easyCRuntime\easyCRuntimeLib.lib(stm32f10x_adc.o)
 .text.ADC_AnalogWatchdogSingleChannelConfig
                0x00000000        0x0 C:\Program Files (x86)\Intelitek\easyC V4 for Cortex\#Tools\STM32F103VD\easyCRuntime\easyCRuntimeLib.lib(stm32f10x_adc.o)
 .text.ADC_TempSensorVrefintCmd
                0x00000000        0x0 C:\Program Files (x86)\Intelitek\easyC V4 for Cortex\#Tools\STM32F103VD\easyCRuntime\easyCRuntimeLib.lib(stm32f10x_adc.o)
 .text.ADC_GetFlagStatus
                0x00000000        0x0 C:\Program Files (x86)\Intelitek\easyC V4 for Cortex\#Tools\STM32F103VD\easyCRuntime\easyCRuntimeLib.lib(stm32f10x_adc.o)
 .text.ADC_ClearFlag
                0x00000000        0x0 C:\Program Files (x86)\Intelitek\easyC V4 for Cortex\#Tools\STM32F103VD\easyCRuntime\easyCRuntimeLib.lib(stm32f10x_adc.o)
 .text.ADC_GetITStatus
                0x00000000        0x0 C:\Program Files (x86)\Intelitek\easyC V4 for Cortex\#Tools\STM32F103VD\easyCRuntime\easyCRuntimeLib.lib(stm32f10x_adc.o)
 .text.ADC_ClearITPendingBit
                0x00000000        0x0 C:\Program Files (x86)\Intelitek\easyC V4 for Cortex\#Tools\STM32F103VD\easyCRuntime\easyCRuntimeLib.lib(stm32f10x_adc.o)
 .text          0x00000000        0x0 C:\Program Files (x86)\Intelitek\easyC V4 for Cortex\#Tools\STM32F103VD\easyCRuntime\easyCRuntimeLib.lib(stm32f10x_dma.o)
 .data          0x00000000        0x0 C:\Program Files (x86)\Intelitek\easyC V4 for Cortex\#Tools\STM32F103VD\easyCRuntime\easyCRuntimeLib.lib(stm32f10x_dma.o)
 .bss           0x00000000        0x0 C:\Program Files (x86)\Intelitek\easyC V4 for Cortex\#Tools\STM32F103VD\easyCRuntime\easyCRuntimeLib.lib(stm32f10x_dma.o)
 .text.DMA_StructInit
                0x00000000        0x0 C:\Program Files (x86)\Intelitek\easyC V4 for Cortex\#Tools\STM32F103VD\easyCRuntime\easyCRuntimeLib.lib(stm32f10x_dma.o)
 .text.DMA_ITConfig
                0x00000000        0x0 C:\Program Files (x86)\Intelitek\easyC V4 for Cortex\#Tools\STM32F103VD\easyCRuntime\easyCRuntimeLib.lib(stm32f10x_dma.o)
 .text.DMA_GetCurrDataCounter
                0x00000000        0x0 C:\Program Files (x86)\Intelitek\easyC V4 for Cortex\#Tools\STM32F103VD\easyCRuntime\easyCRuntimeLib.lib(stm32f10x_dma.o)
 .text.DMA_GetFlagStatus
                0x00000000        0x0 C:\Program Files (x86)\Intelitek\easyC V4 for Cortex\#Tools\STM32F103VD\easyCRuntime\easyCRuntimeLib.lib(stm32f10x_dma.o)
 .text.DMA_ClearFlag
                0x00000000        0x0 C:\Program Files (x86)\Intelitek\easyC V4 for Cortex\#Tools\STM32F103VD\easyCRuntime\easyCRuntimeLib.lib(stm32f10x_dma.o)
 .text.DMA_GetITStatus
                0x00000000        0x0 C:\Program Files (x86)\Intelitek\easyC V4 for Cortex\#Tools\STM32F103VD\easyCRuntime\easyCRuntimeLib.lib(stm32f10x_dma.o)
 .text.DMA_ClearITPendingBit
                0x00000000        0x0 C:\Program Files (x86)\Intelitek\easyC V4 for Cortex\#Tools\STM32F103VD\easyCRuntime\easyCRuntimeLib.lib(stm32f10x_dma.o)
 .text          0x00000000        0x0 C:\Program Files (x86)\Intelitek\easyC V4 for Cortex\#Tools\STM32F103VD\easyCRuntime\easyCRuntimeLib.lib(stm32f10x_exti.o)
 .data          0x00000000        0x0 C:\Program Files (x86)\Intelitek\easyC V4 for Cortex\#Tools\STM32F103VD\easyCRuntime\easyCRuntimeLib.lib(stm32f10x_exti.o)
 .bss           0x00000000        0x0 C:\Program Files (x86)\Intelitek\easyC V4 for Cortex\#Tools\STM32F103VD\easyCRuntime\easyCRuntimeLib.lib(stm32f10x_exti.o)
 .text.EXTI_DeInit
                0x00000000        0x0 C:\Program Files (x86)\Intelitek\easyC V4 for Cortex\#Tools\STM32F103VD\easyCRuntime\easyCRuntimeLib.lib(stm32f10x_exti.o)
 .text.EXTI_Init
                0x00000000        0x0 C:\Program Files (x86)\Intelitek\easyC V4 for Cortex\#Tools\STM32F103VD\easyCRuntime\easyCRuntimeLib.lib(stm32f10x_exti.o)
 .text.EXTI_StructInit
                0x00000000        0x0 C:\Program Files (x86)\Intelitek\easyC V4 for Cortex\#Tools\STM32F103VD\easyCRuntime\easyCRuntimeLib.lib(stm32f10x_exti.o)
 .text.EXTI_GenerateSWInterrupt
                0x00000000        0x0 C:\Program Files (x86)\Intelitek\easyC V4 for Cortex\#Tools\STM32F103VD\easyCRuntime\easyCRuntimeLib.lib(stm32f10x_exti.o)
 .text.EXTI_GetFlagStatus
                0x00000000        0x0 C:\Program Files (x86)\Intelitek\easyC V4 for Cortex\#Tools\STM32F103VD\easyCRuntime\easyCRuntimeLib.lib(stm32f10x_exti.o)
 .text.EXTI_ClearFlag
                0x00000000        0x0 C:\Program Files (x86)\Intelitek\easyC V4 for Cortex\#Tools\STM32F103VD\easyCRuntime\easyCRuntimeLib.lib(stm32f10x_exti.o)
 .text          0x00000000        0x0 C:\Program Files (x86)\Intelitek\easyC V4 for Cortex\#Tools\STM32F103VD\easyCRuntime\easyCRuntimeLib.lib(stm32f10x_flash.o)
 .data          0x00000000        0x0 C:\Program Files (x86)\Intelitek\easyC V4 for Cortex\#Tools\STM32F103VD\easyCRuntime\easyCRuntimeLib.lib(stm32f10x_flash.o)
 .bss           0x00000000        0x0 C:\Program Files (x86)\Intelitek\easyC V4 for Cortex\#Tools\STM32F103VD\easyCRuntime\easyCRuntimeLib.lib(stm32f10x_flash.o)
 .text.FLASH_HalfCycleAccessCmd
                0x00000000        0x0 C:\Program Files (x86)\Intelitek\easyC V4 for Cortex\#Tools\STM32F103VD\easyCRuntime\easyCRuntimeLib.lib(stm32f10x_flash.o)
 .text.FLASH_EraseAllPages
                0x00000000        0x0 C:\Program Files (x86)\Intelitek\easyC V4 for Cortex\#Tools\STM32F103VD\easyCRuntime\easyCRuntimeLib.lib(stm32f10x_flash.o)
 .text.FLASH_EraseOptionBytes
                0x00000000        0x0 C:\Program Files (x86)\Intelitek\easyC V4 for Cortex\#Tools\STM32F103VD\easyCRuntime\easyCRuntimeLib.lib(stm32f10x_flash.o)
 .text.FLASH_ProgramHalfWord
                0x00000000        0x0 C:\Program Files (x86)\Intelitek\easyC V4 for Cortex\#Tools\STM32F103VD\easyCRuntime\easyCRuntimeLib.lib(stm32f10x_flash.o)
 .text.FLASH_ProgramOptionByteData
                0x00000000        0x0 C:\Program Files (x86)\Intelitek\easyC V4 for Cortex\#Tools\STM32F103VD\easyCRuntime\easyCRuntimeLib.lib(stm32f10x_flash.o)
 .text.FLASH_EnableWriteProtection
                0x00000000        0x0 C:\Program Files (x86)\Intelitek\easyC V4 for Cortex\#Tools\STM32F103VD\easyCRuntime\easyCRuntimeLib.lib(stm32f10x_flash.o)
 .text.FLASH_ReadOutProtection
                0x00000000        0x0 C:\Program Files (x86)\Intelitek\easyC V4 for Cortex\#Tools\STM32F103VD\easyCRuntime\easyCRuntimeLib.lib(stm32f10x_flash.o)
 .text.FLASH_UserOptionByteConfig
                0x00000000        0x0 C:\Program Files (x86)\Intelitek\easyC V4 for Cortex\#Tools\STM32F103VD\easyCRuntime\easyCRuntimeLib.lib(stm32f10x_flash.o)
 .text.FLASH_GetUserOptionByte
                0x00000000        0x0 C:\Program Files (x86)\Intelitek\easyC V4 for Cortex\#Tools\STM32F103VD\easyCRuntime\easyCRuntimeLib.lib(stm32f10x_flash.o)
 .text.FLASH_GetWriteProtectionOptionByte
                0x00000000        0x0 C:\Program Files (x86)\Intelitek\easyC V4 for Cortex\#Tools\STM32F103VD\easyCRuntime\easyCRuntimeLib.lib(stm32f10x_flash.o)
 .text.FLASH_GetReadOutProtectionStatus
                0x00000000        0x0 C:\Program Files (x86)\Intelitek\easyC V4 for Cortex\#Tools\STM32F103VD\easyCRuntime\easyCRuntimeLib.lib(stm32f10x_flash.o)
 .text.FLASH_GetPrefetchBufferStatus
                0x00000000        0x0 C:\Program Files (x86)\Intelitek\easyC V4 for Cortex\#Tools\STM32F103VD\easyCRuntime\easyCRuntimeLib.lib(stm32f10x_flash.o)
 .text.FLASH_ITConfig
                0x00000000        0x0 C:\Program Files (x86)\Intelitek\easyC V4 for Cortex\#Tools\STM32F103VD\easyCRuntime\easyCRuntimeLib.lib(stm32f10x_flash.o)
 .text.FLASH_GetFlagStatus
                0x00000000        0x0 C:\Program Files (x86)\Intelitek\easyC V4 for Cortex\#Tools\STM32F103VD\easyCRuntime\easyCRuntimeLib.lib(stm32f10x_flash.o)
 .text          0x00000000        0x0 C:\Program Files (x86)\Intelitek\easyC V4 for Cortex\#Tools\STM32F103VD\easyCRuntime\easyCRuntimeLib.lib(stm32f10x_gpio.o)
 .data          0x00000000        0x0 C:\Program Files (x86)\Intelitek\easyC V4 for Cortex\#Tools\STM32F103VD\easyCRuntime\easyCRuntimeLib.lib(stm32f10x_gpio.o)
 .bss           0x00000000        0x0 C:\Program Files (x86)\Intelitek\easyC V4 for Cortex\#Tools\STM32F103VD\easyCRuntime\easyCRuntimeLib.lib(stm32f10x_gpio.o)
 .text.GPIO_DeInit
                0x00000000        0x0 C:\Program Files (x86)\Intelitek\easyC V4 for Cortex\#Tools\STM32F103VD\easyCRuntime\easyCRuntimeLib.lib(stm32f10x_gpio.o)
 .text.GPIO_AFIODeInit
                0x00000000        0x0 C:\Program Files (x86)\Intelitek\easyC V4 for Cortex\#Tools\STM32F103VD\easyCRuntime\easyCRuntimeLib.lib(stm32f10x_gpio.o)
 .text.GPIO_StructInit
                0x00000000        0x0 C:\Program Files (x86)\Intelitek\easyC V4 for Cortex\#Tools\STM32F103VD\easyCRuntime\easyCRuntimeLib.lib(stm32f10x_gpio.o)
 .text.GPIO_ReadInputData
                0x00000000        0x0 C:\Program Files (x86)\Intelitek\easyC V4 for Cortex\#Tools\STM32F103VD\easyCRuntime\easyCRuntimeLib.lib(stm32f10x_gpio.o)
 .text.GPIO_ReadOutputData
                0x00000000        0x0 C:\Program Files (x86)\Intelitek\easyC V4 for Cortex\#Tools\STM32F103VD\easyCRuntime\easyCRuntimeLib.lib(stm32f10x_gpio.o)
 .text.GPIO_Write
                0x00000000        0x0 C:\Program Files (x86)\Intelitek\easyC V4 for Cortex\#Tools\STM32F103VD\easyCRuntime\easyCRuntimeLib.lib(stm32f10x_gpio.o)
 .text.GPIO_PinLockConfig
                0x00000000        0x0 C:\Program Files (x86)\Intelitek\easyC V4 for Cortex\#Tools\STM32F103VD\easyCRuntime\easyCRuntimeLib.lib(stm32f10x_gpio.o)
 .text.GPIO_EventOutputConfig
                0x00000000        0x0 C:\Program Files (x86)\Intelitek\easyC V4 for Cortex\#Tools\STM32F103VD\easyCRuntime\easyCRuntimeLib.lib(stm32f10x_gpio.o)
 .text.GPIO_EventOutputCmd
                0x00000000        0x0 C:\Program Files (x86)\Intelitek\easyC V4 for Cortex\#Tools\STM32F103VD\easyCRuntime\easyCRuntimeLib.lib(stm32f10x_gpio.o)
 .text.GPIO_EXTILineConfig
                0x00000000        0x0 C:\Program Files (x86)\Intelitek\easyC V4 for Cortex\#Tools\STM32F103VD\easyCRuntime\easyCRuntimeLib.lib(stm32f10x_gpio.o)
 .text          0x00000000        0x0 C:\Program Files (x86)\Intelitek\easyC V4 for Cortex\#Tools\STM32F103VD\easyCRuntime\easyCRuntimeLib.lib(stm32f10x_nvic.o)
 .data          0x00000000        0x0 C:\Program Files (x86)\Intelitek\easyC V4 for Cortex\#Tools\STM32F103VD\easyCRuntime\easyCRuntimeLib.lib(stm32f10x_nvic.o)
 .bss           0x00000000        0x0 C:\Program Files (x86)\Intelitek\easyC V4 for Cortex\#Tools\STM32F103VD\easyCRuntime\easyCRuntimeLib.lib(stm32f10x_nvic.o)
 .text.NVIC_DeInit
                0x00000000        0x0 C:\Program Files (x86)\Intelitek\easyC V4 for Cortex\#Tools\STM32F103VD\easyCRuntime\easyCRuntimeLib.lib(stm32f10x_nvic.o)
 .text.NVIC_SCBDeInit
                0x00000000        0x0 C:\Program Files (x86)\Intelitek\easyC V4 for Cortex\#Tools\STM32F103VD\easyCRuntime\easyCRuntimeLib.lib(stm32f10x_nvic.o)
 .text.NVIC_StructInit
                0x00000000        0x0 C:\Program Files (x86)\Intelitek\easyC V4 for Cortex\#Tools\STM32F103VD\easyCRuntime\easyCRuntimeLib.lib(stm32f10x_nvic.o)
 .text.NVIC_SETPRIMASK
                0x00000000        0x0 C:\Program Files (x86)\Intelitek\easyC V4 for Cortex\#Tools\STM32F103VD\easyCRuntime\easyCRuntimeLib.lib(stm32f10x_nvic.o)
 .text.NVIC_RESETPRIMASK
                0x00000000        0x0 C:\Program Files (x86)\Intelitek\easyC V4 for Cortex\#Tools\STM32F103VD\easyCRuntime\easyCRuntimeLib.lib(stm32f10x_nvic.o)
 .text.NVIC_SETFAULTMASK
                0x00000000        0x0 C:\Program Files (x86)\Intelitek\easyC V4 for Cortex\#Tools\STM32F103VD\easyCRuntime\easyCRuntimeLib.lib(stm32f10x_nvic.o)
 .text.NVIC_RESETFAULTMASK
                0x00000000        0x0 C:\Program Files (x86)\Intelitek\easyC V4 for Cortex\#Tools\STM32F103VD\easyCRuntime\easyCRuntimeLib.lib(stm32f10x_nvic.o)
 .text.NVIC_BASEPRICONFIG
                0x00000000        0x0 C:\Program Files (x86)\Intelitek\easyC V4 for Cortex\#Tools\STM32F103VD\easyCRuntime\easyCRuntimeLib.lib(stm32f10x_nvic.o)
 .text.NVIC_GetBASEPRI
                0x00000000        0x0 C:\Program Files (x86)\Intelitek\easyC V4 for Cortex\#Tools\STM32F103VD\easyCRuntime\easyCRuntimeLib.lib(stm32f10x_nvic.o)
 .text.NVIC_GetCurrentPendingIRQChannel
                0x00000000        0x0 C:\Program Files (x86)\Intelitek\easyC V4 for Cortex\#Tools\STM32F103VD\easyCRuntime\easyCRuntimeLib.lib(stm32f10x_nvic.o)
 .text.NVIC_GetIRQChannelPendingBitStatus
                0x00000000        0x0 C:\Program Files (x86)\Intelitek\easyC V4 for Cortex\#Tools\STM32F103VD\easyCRuntime\easyCRuntimeLib.lib(stm32f10x_nvic.o)
 .text.NVIC_SetIRQChannelPendingBit
                0x00000000        0x0 C:\Program Files (x86)\Intelitek\easyC V4 for Cortex\#Tools\STM32F103VD\easyCRuntime\easyCRuntimeLib.lib(stm32f10x_nvic.o)
 .text.NVIC_ClearIRQChannelPendingBit
                0x00000000        0x0 C:\Program Files (x86)\Intelitek\easyC V4 for Cortex\#Tools\STM32F103VD\easyCRuntime\easyCRuntimeLib.lib(stm32f10x_nvic.o)
 .text.NVIC_GetCurrentActiveHandler
                0x00000000        0x0 C:\Program Files (x86)\Intelitek\easyC V4 for Cortex\#Tools\STM32F103VD\easyCRuntime\easyCRuntimeLib.lib(stm32f10x_nvic.o)
 .text.NVIC_GetIRQChannelActiveBitStatus
                0x00000000        0x0 C:\Program Files (x86)\Intelitek\easyC V4 for Cortex\#Tools\STM32F103VD\easyCRuntime\easyCRuntimeLib.lib(stm32f10x_nvic.o)
 .text.NVIC_GetCPUID
                0x00000000        0x0 C:\Program Files (x86)\Intelitek\easyC V4 for Cortex\#Tools\STM32F103VD\easyCRuntime\easyCRuntimeLib.lib(stm32f10x_nvic.o)
 .text.NVIC_GenerateSystemReset
                0x00000000        0x0 C:\Program Files (x86)\Intelitek\easyC V4 for Cortex\#Tools\STM32F103VD\easyCRuntime\easyCRuntimeLib.lib(stm32f10x_nvic.o)
 .text.NVIC_SystemLPConfig
                0x00000000        0x0 C:\Program Files (x86)\Intelitek\easyC V4 for Cortex\#Tools\STM32F103VD\easyCRuntime\easyCRuntimeLib.lib(stm32f10x_nvic.o)
 .text.NVIC_SystemHandlerConfig
                0x00000000        0x0 C:\Program Files (x86)\Intelitek\easyC V4 for Cortex\#Tools\STM32F103VD\easyCRuntime\easyCRuntimeLib.lib(stm32f10x_nvic.o)
 .text.NVIC_SystemHandlerPriorityConfig
                0x00000000        0x0 C:\Program Files (x86)\Intelitek\easyC V4 for Cortex\#Tools\STM32F103VD\easyCRuntime\easyCRuntimeLib.lib(stm32f10x_nvic.o)
 .text.NVIC_GetSystemHandlerPendingBitStatus
                0x00000000        0x0 C:\Program Files (x86)\Intelitek\easyC V4 for Cortex\#Tools\STM32F103VD\easyCRuntime\easyCRuntimeLib.lib(stm32f10x_nvic.o)
 .text.NVIC_SetSystemHandlerPendingBit
                0x00000000        0x0 C:\Program Files (x86)\Intelitek\easyC V4 for Cortex\#Tools\STM32F103VD\easyCRuntime\easyCRuntimeLib.lib(stm32f10x_nvic.o)
 .text.NVIC_ClearSystemHandlerPendingBit
                0x00000000        0x0 C:\Program Files (x86)\Intelitek\easyC V4 for Cortex\#Tools\STM32F103VD\easyCRuntime\easyCRuntimeLib.lib(stm32f10x_nvic.o)
 .text.NVIC_GetSystemHandlerActiveBitStatus
                0x00000000        0x0 C:\Program Files (x86)\Intelitek\easyC V4 for Cortex\#Tools\STM32F103VD\easyCRuntime\easyCRuntimeLib.lib(stm32f10x_nvic.o)
 .text.NVIC_GetFaultHandlerSources
                0x00000000        0x0 C:\Program Files (x86)\Intelitek\easyC V4 for Cortex\#Tools\STM32F103VD\easyCRuntime\easyCRuntimeLib.lib(stm32f10x_nvic.o)
 .text.NVIC_GetFaultAddress
                0x00000000        0x0 C:\Program Files (x86)\Intelitek\easyC V4 for Cortex\#Tools\STM32F103VD\easyCRuntime\easyCRuntimeLib.lib(stm32f10x_nvic.o)
 .text          0x00000000        0x0 C:\Program Files (x86)\Intelitek\easyC V4 for Cortex\#Tools\STM32F103VD\easyCRuntime\easyCRuntimeLib.lib(stm32f10x_rcc.o)
 .data          0x00000000        0x0 C:\Program Files (x86)\Intelitek\easyC V4 for Cortex\#Tools\STM32F103VD\easyCRuntime\easyCRuntimeLib.lib(stm32f10x_rcc.o)
 .bss           0x00000000        0x0 C:\Program Files (x86)\Intelitek\easyC V4 for Cortex\#Tools\STM32F103VD\easyCRuntime\easyCRuntimeLib.lib(stm32f10x_rcc.o)
 .text.RCC_AdjustHSICalibrationValue
                0x00000000        0x0 C:\Program Files (x86)\Intelitek\easyC V4 for Cortex\#Tools\STM32F103VD\easyCRuntime\easyCRuntimeLib.lib(stm32f10x_rcc.o)
 .text.RCC_HSICmd
                0x00000000        0x0 C:\Program Files (x86)\Intelitek\easyC V4 for Cortex\#Tools\STM32F103VD\easyCRuntime\easyCRuntimeLib.lib(stm32f10x_rcc.o)
 .text.RCC_ITConfig
                0x00000000        0x0 C:\Program Files (x86)\Intelitek\easyC V4 for Cortex\#Tools\STM32F103VD\easyCRuntime\easyCRuntimeLib.lib(stm32f10x_rcc.o)
 .text.RCC_USBCLKConfig
                0x00000000        0x0 C:\Program Files (x86)\Intelitek\easyC V4 for Cortex\#Tools\STM32F103VD\easyCRuntime\easyCRuntimeLib.lib(stm32f10x_rcc.o)
 .text.RCC_LSEConfig
                0x00000000        0x0 C:\Program Files (x86)\Intelitek\easyC V4 for Cortex\#Tools\STM32F103VD\easyCRuntime\easyCRuntimeLib.lib(stm32f10x_rcc.o)
 .text.RCC_LSICmd
                0x00000000        0x0 C:\Program Files (x86)\Intelitek\easyC V4 for Cortex\#Tools\STM32F103VD\easyCRuntime\easyCRuntimeLib.lib(stm32f10x_rcc.o)
 .text.RCC_RTCCLKConfig
                0x00000000        0x0 C:\Program Files (x86)\Intelitek\easyC V4 for Cortex\#Tools\STM32F103VD\easyCRuntime\easyCRuntimeLib.lib(stm32f10x_rcc.o)
 .text.RCC_RTCCLKCmd
                0x00000000        0x0 C:\Program Files (x86)\Intelitek\easyC V4 for Cortex\#Tools\STM32F103VD\easyCRuntime\easyCRuntimeLib.lib(stm32f10x_rcc.o)
 .text.RCC_APB1PeriphResetCmd
                0x00000000        0x0 C:\Program Files (x86)\Intelitek\easyC V4 for Cortex\#Tools\STM32F103VD\easyCRuntime\easyCRuntimeLib.lib(stm32f10x_rcc.o)
 .text.RCC_BackupResetCmd
                0x00000000        0x0 C:\Program Files (x86)\Intelitek\easyC V4 for Cortex\#Tools\STM32F103VD\easyCRuntime\easyCRuntimeLib.lib(stm32f10x_rcc.o)
 .text.RCC_ClockSecuritySystemCmd
                0x00000000        0x0 C:\Program Files (x86)\Intelitek\easyC V4 for Cortex\#Tools\STM32F103VD\easyCRuntime\easyCRuntimeLib.lib(stm32f10x_rcc.o)
 .text.RCC_MCOConfig
                0x00000000        0x0 C:\Program Files (x86)\Intelitek\easyC V4 for Cortex\#Tools\STM32F103VD\easyCRuntime\easyCRuntimeLib.lib(stm32f10x_rcc.o)
 .text.RCC_ClearFlag
                0x00000000        0x0 C:\Program Files (x86)\Intelitek\easyC V4 for Cortex\#Tools\STM32F103VD\easyCRuntime\easyCRuntimeLib.lib(stm32f10x_rcc.o)
 .text.RCC_GetITStatus
                0x00000000        0x0 C:\Program Files (x86)\Intelitek\easyC V4 for Cortex\#Tools\STM32F103VD\easyCRuntime\easyCRuntimeLib.lib(stm32f10x_rcc.o)
 .text.RCC_ClearITPendingBit
                0x00000000        0x0 C:\Program Files (x86)\Intelitek\easyC V4 for Cortex\#Tools\STM32F103VD\easyCRuntime\easyCRuntimeLib.lib(stm32f10x_rcc.o)
 .text          0x00000000        0x0 C:\Program Files (x86)\Intelitek\easyC V4 for Cortex\#Tools\STM32F103VD\easyCRuntime\easyCRuntimeLib.lib(stm32f10x_spi.o)
 .data          0x00000000        0x0 C:\Program Files (x86)\Intelitek\easyC V4 for Cortex\#Tools\STM32F103VD\easyCRuntime\easyCRuntimeLib.lib(stm32f10x_spi.o)
 .bss           0x00000000        0x0 C:\Program Files (x86)\Intelitek\easyC V4 for Cortex\#Tools\STM32F103VD\easyCRuntime\easyCRuntimeLib.lib(stm32f10x_spi.o)
 .text.SPI_I2S_DeInit
                0x00000000        0x0 C:\Program Files (x86)\Intelitek\easyC V4 for Cortex\#Tools\STM32F103VD\easyCRuntime\easyCRuntimeLib.lib(stm32f10x_spi.o)
 .text.I2S_Init
                0x00000000        0x0 C:\Program Files (x86)\Intelitek\easyC V4 for Cortex\#Tools\STM32F103VD\easyCRuntime\easyCRuntimeLib.lib(stm32f10x_spi.o)
 .text.SPI_StructInit
                0x00000000        0x0 C:\Program Files (x86)\Intelitek\easyC V4 for Cortex\#Tools\STM32F103VD\easyCRuntime\easyCRuntimeLib.lib(stm32f10x_spi.o)
 .text.I2S_StructInit
                0x00000000        0x0 C:\Program Files (x86)\Intelitek\easyC V4 for Cortex\#Tools\STM32F103VD\easyCRuntime\easyCRuntimeLib.lib(stm32f10x_spi.o)
 .text.I2S_Cmd  0x00000000        0x0 C:\Program Files (x86)\Intelitek\easyC V4 for Cortex\#Tools\STM32F103VD\easyCRuntime\easyCRuntimeLib.lib(stm32f10x_spi.o)
 .text.SPI_I2S_ITConfig
                0x00000000        0x0 C:\Program Files (x86)\Intelitek\easyC V4 for Cortex\#Tools\STM32F103VD\easyCRuntime\easyCRuntimeLib.lib(stm32f10x_spi.o)
 .text.SPI_I2S_DMACmd
                0x00000000        0x0 C:\Program Files (x86)\Intelitek\easyC V4 for Cortex\#Tools\STM32F103VD\easyCRuntime\easyCRuntimeLib.lib(stm32f10x_spi.o)
 .text.SPI_NSSInternalSoftwareConfig
                0x00000000        0x0 C:\Program Files (x86)\Intelitek\easyC V4 for Cortex\#Tools\STM32F103VD\easyCRuntime\easyCRuntimeLib.lib(stm32f10x_spi.o)
 .text.SPI_SSOutputCmd
                0x00000000        0x0 C:\Program Files (x86)\Intelitek\easyC V4 for Cortex\#Tools\STM32F103VD\easyCRuntime\easyCRuntimeLib.lib(stm32f10x_spi.o)
 .text.SPI_DataSizeConfig
                0x00000000        0x0 C:\Program Files (x86)\Intelitek\easyC V4 for Cortex\#Tools\STM32F103VD\easyCRuntime\easyCRuntimeLib.lib(stm32f10x_spi.o)
 .text.SPI_TransmitCRC
                0x00000000        0x0 C:\Program Files (x86)\Intelitek\easyC V4 for Cortex\#Tools\STM32F103VD\easyCRuntime\easyCRuntimeLib.lib(stm32f10x_spi.o)
 .text.SPI_CalculateCRC
                0x00000000        0x0 C:\Program Files (x86)\Intelitek\easyC V4 for Cortex\#Tools\STM32F103VD\easyCRuntime\easyCRuntimeLib.lib(stm32f10x_spi.o)
 .text.SPI_GetCRC
                0x00000000        0x0 C:\Program Files (x86)\Intelitek\easyC V4 for Cortex\#Tools\STM32F103VD\easyCRuntime\easyCRuntimeLib.lib(stm32f10x_spi.o)
 .text.SPI_GetCRCPolynomial
                0x00000000        0x0 C:\Program Files (x86)\Intelitek\easyC V4 for Cortex\#Tools\STM32F103VD\easyCRuntime\easyCRuntimeLib.lib(stm32f10x_spi.o)
 .text.SPI_BiDirectionalLineConfig
                0x00000000        0x0 C:\Program Files (x86)\Intelitek\easyC V4 for Cortex\#Tools\STM32F103VD\easyCRuntime\easyCRuntimeLib.lib(stm32f10x_spi.o)
 .text.SPI_I2S_ClearFlag
                0x00000000        0x0 C:\Program Files (x86)\Intelitek\easyC V4 for Cortex\#Tools\STM32F103VD\easyCRuntime\easyCRuntimeLib.lib(stm32f10x_spi.o)
 .text.SPI_I2S_GetITStatus
                0x00000000        0x0 C:\Program Files (x86)\Intelitek\easyC V4 for Cortex\#Tools\STM32F103VD\easyCRuntime\easyCRuntimeLib.lib(stm32f10x_spi.o)
 .text.SPI_I2S_ClearITPendingBit
                0x00000000        0x0 C:\Program Files (x86)\Intelitek\easyC V4 for Cortex\#Tools\STM32F103VD\easyCRuntime\easyCRuntimeLib.lib(stm32f10x_spi.o)
 .text          0x00000000        0x0 C:\Program Files (x86)\Intelitek\easyC V4 for Cortex\#Tools\STM32F103VD\easyCRuntime\easyCRuntimeLib.lib(stm32f10x_systick.o)
 .data          0x00000000        0x0 C:\Program Files (x86)\Intelitek\easyC V4 for Cortex\#Tools\STM32F103VD\easyCRuntime\easyCRuntimeLib.lib(stm32f10x_systick.o)
 .bss           0x00000000        0x0 C:\Program Files (x86)\Intelitek\easyC V4 for Cortex\#Tools\STM32F103VD\easyCRuntime\easyCRuntimeLib.lib(stm32f10x_systick.o)
 .text.SysTick_CLKSourceConfig
                0x00000000        0x0 C:\Program Files (x86)\Intelitek\easyC V4 for Cortex\#Tools\STM32F103VD\easyCRuntime\easyCRuntimeLib.lib(stm32f10x_systick.o)
 .text.SysTick_GetCounter
                0x00000000        0x0 C:\Program Files (x86)\Intelitek\easyC V4 for Cortex\#Tools\STM32F103VD\easyCRuntime\easyCRuntimeLib.lib(stm32f10x_systick.o)
 .text.SysTick_GetFlagStatus
                0x00000000        0x0 C:\Program Files (x86)\Intelitek\easyC V4 for Cortex\#Tools\STM32F103VD\easyCRuntime\easyCRuntimeLib.lib(stm32f10x_systick.o)
 .text          0x00000000        0x0 C:\Program Files (x86)\Intelitek\easyC V4 for Cortex\#Tools\STM32F103VD\easyCRuntime\easyCRuntimeLib.lib(stm32f10x_tim.o)
 .data          0x00000000        0x0 C:\Program Files (x86)\Intelitek\easyC V4 for Cortex\#Tools\STM32F103VD\easyCRuntime\easyCRuntimeLib.lib(stm32f10x_tim.o)
 .bss           0x00000000        0x0 C:\Program Files (x86)\Intelitek\easyC V4 for Cortex\#Tools\STM32F103VD\easyCRuntime\easyCRuntimeLib.lib(stm32f10x_tim.o)
 .text.TIM_DeInit
                0x00000000        0x0 C:\Program Files (x86)\Intelitek\easyC V4 for Cortex\#Tools\STM32F103VD\easyCRuntime\easyCRuntimeLib.lib(stm32f10x_tim.o)
 .text.TIM_OC1Init
                0x00000000        0x0 C:\Program Files (x86)\Intelitek\easyC V4 for Cortex\#Tools\STM32F103VD\easyCRuntime\easyCRuntimeLib.lib(stm32f10x_tim.o)
 .text.TIM_OC2Init
                0x00000000        0x0 C:\Program Files (x86)\Intelitek\easyC V4 for Cortex\#Tools\STM32F103VD\easyCRuntime\easyCRuntimeLib.lib(stm32f10x_tim.o)
 .text.TIM_OC3Init
                0x00000000        0x0 C:\Program Files (x86)\Intelitek\easyC V4 for Cortex\#Tools\STM32F103VD\easyCRuntime\easyCRuntimeLib.lib(stm32f10x_tim.o)
 .text.TIM_OC4Init
                0x00000000        0x0 C:\Program Files (x86)\Intelitek\easyC V4 for Cortex\#Tools\STM32F103VD\easyCRuntime\easyCRuntimeLib.lib(stm32f10x_tim.o)
 .text.TIM_ICInit
                0x00000000        0x0 C:\Program Files (x86)\Intelitek\easyC V4 for Cortex\#Tools\STM32F103VD\easyCRuntime\easyCRuntimeLib.lib(stm32f10x_tim.o)
 .text.TIM_PWMIConfig
                0x00000000        0x0 C:\Program Files (x86)\Intelitek\easyC V4 for Cortex\#Tools\STM32F103VD\easyCRuntime\easyCRuntimeLib.lib(stm32f10x_tim.o)
 .text.TIM_BDTRConfig
                0x00000000        0x0 C:\Program Files (x86)\Intelitek\easyC V4 for Cortex\#Tools\STM32F103VD\easyCRuntime\easyCRuntimeLib.lib(stm32f10x_tim.o)
 .text.TIM_TimeBaseStructInit
                0x00000000        0x0 C:\Program Files (x86)\Intelitek\easyC V4 for Cortex\#Tools\STM32F103VD\easyCRuntime\easyCRuntimeLib.lib(stm32f10x_tim.o)
 .text.TIM_OCStructInit
                0x00000000        0x0 C:\Program Files (x86)\Intelitek\easyC V4 for Cortex\#Tools\STM32F103VD\easyCRuntime\easyCRuntimeLib.lib(stm32f10x_tim.o)
 .text.TIM_ICStructInit
                0x00000000        0x0 C:\Program Files (x86)\Intelitek\easyC V4 for Cortex\#Tools\STM32F103VD\easyCRuntime\easyCRuntimeLib.lib(stm32f10x_tim.o)
 .text.TIM_BDTRStructInit
                0x00000000        0x0 C:\Program Files (x86)\Intelitek\easyC V4 for Cortex\#Tools\STM32F103VD\easyCRuntime\easyCRuntimeLib.lib(stm32f10x_tim.o)
 .text.TIM_CtrlPWMOutputs
                0x00000000        0x0 C:\Program Files (x86)\Intelitek\easyC V4 for Cortex\#Tools\STM32F103VD\easyCRuntime\easyCRuntimeLib.lib(stm32f10x_tim.o)
 .text.TIM_GenerateEvent
                0x00000000        0x0 C:\Program Files (x86)\Intelitek\easyC V4 for Cortex\#Tools\STM32F103VD\easyCRuntime\easyCRuntimeLib.lib(stm32f10x_tim.o)
 .text.TIM_DMAConfig
                0x00000000        0x0 C:\Program Files (x86)\Intelitek\easyC V4 for Cortex\#Tools\STM32F103VD\easyCRuntime\easyCRuntimeLib.lib(stm32f10x_tim.o)
 .text.TIM_DMACmd
                0x00000000        0x0 C:\Program Files (x86)\Intelitek\easyC V4 for Cortex\#Tools\STM32F103VD\easyCRuntime\easyCRuntimeLib.lib(stm32f10x_tim.o)
 .text.TIM_InternalClockConfig
                0x00000000        0x0 C:\Program Files (x86)\Intelitek\easyC V4 for Cortex\#Tools\STM32F103VD\easyCRuntime\easyCRuntimeLib.lib(stm32f10x_tim.o)
 .text.TIM_ITRxExternalClockConfig
                0x00000000        0x0 C:\Program Files (x86)\Intelitek\easyC V4 for Cortex\#Tools\STM32F103VD\easyCRuntime\easyCRuntimeLib.lib(stm32f10x_tim.o)
 .text.TIM_TIxExternalClockConfig
                0x00000000        0x0 C:\Program Files (x86)\Intelitek\easyC V4 for Cortex\#Tools\STM32F103VD\easyCRuntime\easyCRuntimeLib.lib(stm32f10x_tim.o)
 .text.TIM_ETRClockMode1Config
                0x00000000        0x0 C:\Program Files (x86)\Intelitek\easyC V4 for Cortex\#Tools\STM32F103VD\easyCRuntime\easyCRuntimeLib.lib(stm32f10x_tim.o)
 .text.TIM_ETRClockMode2Config
                0x00000000        0x0 C:\Program Files (x86)\Intelitek\easyC V4 for Cortex\#Tools\STM32F103VD\easyCRuntime\easyCRuntimeLib.lib(stm32f10x_tim.o)
 .text.TIM_ETRConfig
                0x00000000        0x0 C:\Program Files (x86)\Intelitek\easyC V4 for Cortex\#Tools\STM32F103VD\easyCRuntime\easyCRuntimeLib.lib(stm32f10x_tim.o)
 .text.TIM_PrescalerConfig
                0x00000000        0x0 C:\Program Files (x86)\Intelitek\easyC V4 for Cortex\#Tools\STM32F103VD\easyCRuntime\easyCRuntimeLib.lib(stm32f10x_tim.o)
 .text.TIM_CounterModeConfig
                0x00000000        0x0 C:\Program Files (x86)\Intelitek\easyC V4 for Cortex\#Tools\STM32F103VD\easyCRuntime\easyCRuntimeLib.lib(stm32f10x_tim.o)
 .text.TIM_SelectInputTrigger
                0x00000000        0x0 C:\Program Files (x86)\Intelitek\easyC V4 for Cortex\#Tools\STM32F103VD\easyCRuntime\easyCRuntimeLib.lib(stm32f10x_tim.o)
 .text.TIM_EncoderInterfaceConfig
                0x00000000        0x0 C:\Program Files (x86)\Intelitek\easyC V4 for Cortex\#Tools\STM32F103VD\easyCRuntime\easyCRuntimeLib.lib(stm32f10x_tim.o)
 .text.TIM_ForcedOC1Config
                0x00000000        0x0 C:\Program Files (x86)\Intelitek\easyC V4 for Cortex\#Tools\STM32F103VD\easyCRuntime\easyCRuntimeLib.lib(stm32f10x_tim.o)
 .text.TIM_ForcedOC2Config
                0x00000000        0x0 C:\Program Files (x86)\Intelitek\easyC V4 for Cortex\#Tools\STM32F103VD\easyCRuntime\easyCRuntimeLib.lib(stm32f10x_tim.o)
 .text.TIM_ForcedOC3Config
                0x00000000        0x0 C:\Program Files (x86)\Intelitek\easyC V4 for Cortex\#Tools\STM32F103VD\easyCRuntime\easyCRuntimeLib.lib(stm32f10x_tim.o)
 .text.TIM_ForcedOC4Config
                0x00000000        0x0 C:\Program Files (x86)\Intelitek\easyC V4 for Cortex\#Tools\STM32F103VD\easyCRuntime\easyCRuntimeLib.lib(stm32f10x_tim.o)
 .text.TIM_SelectCOM
                0x00000000        0x0 C:\Program Files (x86)\Intelitek\easyC V4 for Cortex\#Tools\STM32F103VD\easyCRuntime\easyCRuntimeLib.lib(stm32f10x_tim.o)
 .text.TIM_SelectCCDMA
                0x00000000        0x0 C:\Program Files (x86)\Intelitek\easyC V4 for Cortex\#Tools\STM32F103VD\easyCRuntime\easyCRuntimeLib.lib(stm32f10x_tim.o)
 .text.TIM_CCPreloadControl
                0x00000000        0x0 C:\Program Files (x86)\Intelitek\easyC V4 for Cortex\#Tools\STM32F103VD\easyCRuntime\easyCRuntimeLib.lib(stm32f10x_tim.o)
 .text.TIM_OC2PreloadConfig
                0x00000000        0x0 C:\Program Files (x86)\Intelitek\easyC V4 for Cortex\#Tools\STM32F103VD\easyCRuntime\easyCRuntimeLib.lib(stm32f10x_tim.o)
 .text.TIM_OC3PreloadConfig
                0x00000000        0x0 C:\Program Files (x86)\Intelitek\easyC V4 for Cortex\#Tools\STM32F103VD\easyCRuntime\easyCRuntimeLib.lib(stm32f10x_tim.o)
 .text.TIM_OC4PreloadConfig
                0x00000000        0x0 C:\Program Files (x86)\Intelitek\easyC V4 for Cortex\#Tools\STM32F103VD\easyCRuntime\easyCRuntimeLib.lib(stm32f10x_tim.o)
 .text.TIM_OC1FastConfig
                0x00000000        0x0 C:\Program Files (x86)\Intelitek\easyC V4 for Cortex\#Tools\STM32F103VD\easyCRuntime\easyCRuntimeLib.lib(stm32f10x_tim.o)
 .text.TIM_OC2FastConfig
                0x00000000        0x0 C:\Program Files (x86)\Intelitek\easyC V4 for Cortex\#Tools\STM32F103VD\easyCRuntime\easyCRuntimeLib.lib(stm32f10x_tim.o)
 .text.TIM_OC3FastConfig
                0x00000000        0x0 C:\Program Files (x86)\Intelitek\easyC V4 for Cortex\#Tools\STM32F103VD\easyCRuntime\easyCRuntimeLib.lib(stm32f10x_tim.o)
 .text.TIM_OC4FastConfig
                0x00000000        0x0 C:\Program Files (x86)\Intelitek\easyC V4 for Cortex\#Tools\STM32F103VD\easyCRuntime\easyCRuntimeLib.lib(stm32f10x_tim.o)
 .text.TIM_ClearOC1Ref
                0x00000000        0x0 C:\Program Files (x86)\Intelitek\easyC V4 for Cortex\#Tools\STM32F103VD\easyCRuntime\easyCRuntimeLib.lib(stm32f10x_tim.o)
 .text.TIM_ClearOC2Ref
                0x00000000        0x0 C:\Program Files (x86)\Intelitek\easyC V4 for Cortex\#Tools\STM32F103VD\easyCRuntime\easyCRuntimeLib.lib(stm32f10x_tim.o)
 .text.TIM_ClearOC3Ref
                0x00000000        0x0 C:\Program Files (x86)\Intelitek\easyC V4 for Cortex\#Tools\STM32F103VD\easyCRuntime\easyCRuntimeLib.lib(stm32f10x_tim.o)
 .text.TIM_ClearOC4Ref
                0x00000000        0x0 C:\Program Files (x86)\Intelitek\easyC V4 for Cortex\#Tools\STM32F103VD\easyCRuntime\easyCRuntimeLib.lib(stm32f10x_tim.o)
 .text.TIM_OC1PolarityConfig
                0x00000000        0x0 C:\Program Files (x86)\Intelitek\easyC V4 for Cortex\#Tools\STM32F103VD\easyCRuntime\easyCRuntimeLib.lib(stm32f10x_tim.o)
 .text.TIM_OC1NPolarityConfig
                0x00000000        0x0 C:\Program Files (x86)\Intelitek\easyC V4 for Cortex\#Tools\STM32F103VD\easyCRuntime\easyCRuntimeLib.lib(stm32f10x_tim.o)
 .text.TIM_OC2PolarityConfig
                0x00000000        0x0 C:\Program Files (x86)\Intelitek\easyC V4 for Cortex\#Tools\STM32F103VD\easyCRuntime\easyCRuntimeLib.lib(stm32f10x_tim.o)
 .text.TIM_OC2NPolarityConfig
                0x00000000        0x0 C:\Program Files (x86)\Intelitek\easyC V4 for Cortex\#Tools\STM32F103VD\easyCRuntime\easyCRuntimeLib.lib(stm32f10x_tim.o)
 .text.TIM_OC3PolarityConfig
                0x00000000        0x0 C:\Program Files (x86)\Intelitek\easyC V4 for Cortex\#Tools\STM32F103VD\easyCRuntime\easyCRuntimeLib.lib(stm32f10x_tim.o)
 .text.TIM_OC3NPolarityConfig
                0x00000000        0x0 C:\Program Files (x86)\Intelitek\easyC V4 for Cortex\#Tools\STM32F103VD\easyCRuntime\easyCRuntimeLib.lib(stm32f10x_tim.o)
 .text.TIM_OC4PolarityConfig
                0x00000000        0x0 C:\Program Files (x86)\Intelitek\easyC V4 for Cortex\#Tools\STM32F103VD\easyCRuntime\easyCRuntimeLib.lib(stm32f10x_tim.o)
 .text.TIM_CCxCmd
                0x00000000        0x0 C:\Program Files (x86)\Intelitek\easyC V4 for Cortex\#Tools\STM32F103VD\easyCRuntime\easyCRuntimeLib.lib(stm32f10x_tim.o)
 .text.TIM_CCxNCmd
                0x00000000        0x0 C:\Program Files (x86)\Intelitek\easyC V4 for Cortex\#Tools\STM32F103VD\easyCRuntime\easyCRuntimeLib.lib(stm32f10x_tim.o)
 .text.TIM_SelectOCxM
                0x00000000        0x0 C:\Program Files (x86)\Intelitek\easyC V4 for Cortex\#Tools\STM32F103VD\easyCRuntime\easyCRuntimeLib.lib(stm32f10x_tim.o)
 .text.TIM_UpdateDisableConfig
                0x00000000        0x0 C:\Program Files (x86)\Intelitek\easyC V4 for Cortex\#Tools\STM32F103VD\easyCRuntime\easyCRuntimeLib.lib(stm32f10x_tim.o)
 .text.TIM_UpdateRequestConfig
                0x00000000        0x0 C:\Program Files (x86)\Intelitek\easyC V4 for Cortex\#Tools\STM32F103VD\easyCRuntime\easyCRuntimeLib.lib(stm32f10x_tim.o)
 .text.TIM_SelectHallSensor
                0x00000000        0x0 C:\Program Files (x86)\Intelitek\easyC V4 for Cortex\#Tools\STM32F103VD\easyCRuntime\easyCRuntimeLib.lib(stm32f10x_tim.o)
 .text.TIM_SelectOnePulseMode
                0x00000000        0x0 C:\Program Files (x86)\Intelitek\easyC V4 for Cortex\#Tools\STM32F103VD\easyCRuntime\easyCRuntimeLib.lib(stm32f10x_tim.o)
 .text.TIM_SelectOutputTrigger
                0x00000000        0x0 C:\Program Files (x86)\Intelitek\easyC V4 for Cortex\#Tools\STM32F103VD\easyCRuntime\easyCRuntimeLib.lib(stm32f10x_tim.o)
 .text.TIM_SelectSlaveMode
                0x00000000        0x0 C:\Program Files (x86)\Intelitek\easyC V4 for Cortex\#Tools\STM32F103VD\easyCRuntime\easyCRuntimeLib.lib(stm32f10x_tim.o)
 .text.TIM_SelectMasterSlaveMode
                0x00000000        0x0 C:\Program Files (x86)\Intelitek\easyC V4 for Cortex\#Tools\STM32F103VD\easyCRuntime\easyCRuntimeLib.lib(stm32f10x_tim.o)
 .text.TIM_SetCounter
                0x00000000        0x0 C:\Program Files (x86)\Intelitek\easyC V4 for Cortex\#Tools\STM32F103VD\easyCRuntime\easyCRuntimeLib.lib(stm32f10x_tim.o)
 .text.TIM_SetAutoreload
                0x00000000        0x0 C:\Program Files (x86)\Intelitek\easyC V4 for Cortex\#Tools\STM32F103VD\easyCRuntime\easyCRuntimeLib.lib(stm32f10x_tim.o)
 .text.TIM_SetCompare1
                0x00000000        0x0 C:\Program Files (x86)\Intelitek\easyC V4 for Cortex\#Tools\STM32F103VD\easyCRuntime\easyCRuntimeLib.lib(stm32f10x_tim.o)
 .text.TIM_SetCompare2
                0x00000000        0x0 C:\Program Files (x86)\Intelitek\easyC V4 for Cortex\#Tools\STM32F103VD\easyCRuntime\easyCRuntimeLib.lib(stm32f10x_tim.o)
 .text.TIM_SetCompare3
                0x00000000        0x0 C:\Program Files (x86)\Intelitek\easyC V4 for Cortex\#Tools\STM32F103VD\easyCRuntime\easyCRuntimeLib.lib(stm32f10x_tim.o)
 .text.TIM_SetCompare4
                0x00000000        0x0 C:\Program Files (x86)\Intelitek\easyC V4 for Cortex\#Tools\STM32F103VD\easyCRuntime\easyCRuntimeLib.lib(stm32f10x_tim.o)
 .text.TIM_SetIC1Prescaler
                0x00000000        0x0 C:\Program Files (x86)\Intelitek\easyC V4 for Cortex\#Tools\STM32F103VD\easyCRuntime\easyCRuntimeLib.lib(stm32f10x_tim.o)
 .text.TIM_SetIC2Prescaler
                0x00000000        0x0 C:\Program Files (x86)\Intelitek\easyC V4 for Cortex\#Tools\STM32F103VD\easyCRuntime\easyCRuntimeLib.lib(stm32f10x_tim.o)
 .text.TIM_SetIC3Prescaler
                0x00000000        0x0 C:\Program Files (x86)\Intelitek\easyC V4 for Cortex\#Tools\STM32F103VD\easyCRuntime\easyCRuntimeLib.lib(stm32f10x_tim.o)
 .text.TIM_SetIC4Prescaler
                0x00000000        0x0 C:\Program Files (x86)\Intelitek\easyC V4 for Cortex\#Tools\STM32F103VD\easyCRuntime\easyCRuntimeLib.lib(stm32f10x_tim.o)
 .text.TIM_SetClockDivision
                0x00000000        0x0 C:\Program Files (x86)\Intelitek\easyC V4 for Cortex\#Tools\STM32F103VD\easyCRuntime\easyCRuntimeLib.lib(stm32f10x_tim.o)
 .text.TIM_GetCapture1
                0x00000000        0x0 C:\Program Files (x86)\Intelitek\easyC V4 for Cortex\#Tools\STM32F103VD\easyCRuntime\easyCRuntimeLib.lib(stm32f10x_tim.o)
 .text.TIM_GetCapture2
                0x00000000        0x0 C:\Program Files (x86)\Intelitek\easyC V4 for Cortex\#Tools\STM32F103VD\easyCRuntime\easyCRuntimeLib.lib(stm32f10x_tim.o)
 .text.TIM_GetCapture4
                0x00000000        0x0 C:\Program Files (x86)\Intelitek\easyC V4 for Cortex\#Tools\STM32F103VD\easyCRuntime\easyCRuntimeLib.lib(stm32f10x_tim.o)
 .text.TIM_GetCounter
                0x00000000        0x0 C:\Program Files (x86)\Intelitek\easyC V4 for Cortex\#Tools\STM32F103VD\easyCRuntime\easyCRuntimeLib.lib(stm32f10x_tim.o)
 .text.TIM_GetPrescaler
                0x00000000        0x0 C:\Program Files (x86)\Intelitek\easyC V4 for Cortex\#Tools\STM32F103VD\easyCRuntime\easyCRuntimeLib.lib(stm32f10x_tim.o)
 .text.TIM_GetFlagStatus
                0x00000000        0x0 C:\Program Files (x86)\Intelitek\easyC V4 for Cortex\#Tools\STM32F103VD\easyCRuntime\easyCRuntimeLib.lib(stm32f10x_tim.o)
 .text.TIM_ClearFlag
                0x00000000        0x0 C:\Program Files (x86)\Intelitek\easyC V4 for Cortex\#Tools\STM32F103VD\easyCRuntime\easyCRuntimeLib.lib(stm32f10x_tim.o)
 .text.TI1_Config
                0x00000000        0x0 C:\Program Files (x86)\Intelitek\easyC V4 for Cortex\#Tools\STM32F103VD\easyCRuntime\easyCRuntimeLib.lib(stm32f10x_tim.o)
 .text.TI2_Config
                0x00000000        0x0 C:\Program Files (x86)\Intelitek\easyC V4 for Cortex\#Tools\STM32F103VD\easyCRuntime\easyCRuntimeLib.lib(stm32f10x_tim.o)
 .text.TI3_Config
                0x00000000        0x0 C:\Program Files (x86)\Intelitek\easyC V4 for Cortex\#Tools\STM32F103VD\easyCRuntime\easyCRuntimeLib.lib(stm32f10x_tim.o)
 .text.TI4_Config
                0x00000000        0x0 C:\Program Files (x86)\Intelitek\easyC V4 for Cortex\#Tools\STM32F103VD\easyCRuntime\easyCRuntimeLib.lib(stm32f10x_tim.o)
 .text          0x00000000        0x0 C:\Program Files (x86)\Intelitek\easyC V4 for Cortex\#Tools\STM32F103VD\easyCRuntime\easyCRuntimeLib.lib(stm32f10x_usart.o)
 .data          0x00000000        0x0 C:\Program Files (x86)\Intelitek\easyC V4 for Cortex\#Tools\STM32F103VD\easyCRuntime\easyCRuntimeLib.lib(stm32f10x_usart.o)
 .bss           0x00000000        0x0 C:\Program Files (x86)\Intelitek\easyC V4 for Cortex\#Tools\STM32F103VD\easyCRuntime\easyCRuntimeLib.lib(stm32f10x_usart.o)
 .text.USART_DeInit
                0x00000000        0x0 C:\Program Files (x86)\Intelitek\easyC V4 for Cortex\#Tools\STM32F103VD\easyCRuntime\easyCRuntimeLib.lib(stm32f10x_usart.o)
 .text.USART_StructInit
                0x00000000        0x0 C:\Program Files (x86)\Intelitek\easyC V4 for Cortex\#Tools\STM32F103VD\easyCRuntime\easyCRuntimeLib.lib(stm32f10x_usart.o)
 .text.USART_ClockInit
                0x00000000        0x0 C:\Program Files (x86)\Intelitek\easyC V4 for Cortex\#Tools\STM32F103VD\easyCRuntime\easyCRuntimeLib.lib(stm32f10x_usart.o)
 .text.USART_ClockStructInit
                0x00000000        0x0 C:\Program Files (x86)\Intelitek\easyC V4 for Cortex\#Tools\STM32F103VD\easyCRuntime\easyCRuntimeLib.lib(stm32f10x_usart.o)
 .text.USART_DMACmd
                0x00000000        0x0 C:\Program Files (x86)\Intelitek\easyC V4 for Cortex\#Tools\STM32F103VD\easyCRuntime\easyCRuntimeLib.lib(stm32f10x_usart.o)
 .text.USART_SetAddress
                0x00000000        0x0 C:\Program Files (x86)\Intelitek\easyC V4 for Cortex\#Tools\STM32F103VD\easyCRuntime\easyCRuntimeLib.lib(stm32f10x_usart.o)
 .text.USART_WakeUpConfig
                0x00000000        0x0 C:\Program Files (x86)\Intelitek\easyC V4 for Cortex\#Tools\STM32F103VD\easyCRuntime\easyCRuntimeLib.lib(stm32f10x_usart.o)
 .text.USART_ReceiverWakeUpCmd
                0x00000000        0x0 C:\Program Files (x86)\Intelitek\easyC V4 for Cortex\#Tools\STM32F103VD\easyCRuntime\easyCRuntimeLib.lib(stm32f10x_usart.o)
 .text.USART_LINBreakDetectLengthConfig
                0x00000000        0x0 C:\Program Files (x86)\Intelitek\easyC V4 for Cortex\#Tools\STM32F103VD\easyCRuntime\easyCRuntimeLib.lib(stm32f10x_usart.o)
 .text.USART_LINCmd
                0x00000000        0x0 C:\Program Files (x86)\Intelitek\easyC V4 for Cortex\#Tools\STM32F103VD\easyCRuntime\easyCRuntimeLib.lib(stm32f10x_usart.o)
 .text.USART_SendBreak
                0x00000000        0x0 C:\Program Files (x86)\Intelitek\easyC V4 for Cortex\#Tools\STM32F103VD\easyCRuntime\easyCRuntimeLib.lib(stm32f10x_usart.o)
 .text.USART_SetGuardTime
                0x00000000        0x0 C:\Program Files (x86)\Intelitek\easyC V4 for Cortex\#Tools\STM32F103VD\easyCRuntime\easyCRuntimeLib.lib(stm32f10x_usart.o)
 .text.USART_SetPrescaler
                0x00000000        0x0 C:\Program Files (x86)\Intelitek\easyC V4 for Cortex\#Tools\STM32F103VD\easyCRuntime\easyCRuntimeLib.lib(stm32f10x_usart.o)
 .text.USART_SmartCardCmd
                0x00000000        0x0 C:\Program Files (x86)\Intelitek\easyC V4 for Cortex\#Tools\STM32F103VD\easyCRuntime\easyCRuntimeLib.lib(stm32f10x_usart.o)
 .text.USART_SmartCardNACKCmd
                0x00000000        0x0 C:\Program Files (x86)\Intelitek\easyC V4 for Cortex\#Tools\STM32F103VD\easyCRuntime\easyCRuntimeLib.lib(stm32f10x_usart.o)
 .text.USART_HalfDuplexCmd
                0x00000000        0x0 C:\Program Files (x86)\Intelitek\easyC V4 for Cortex\#Tools\STM32F103VD\easyCRuntime\easyCRuntimeLib.lib(stm32f10x_usart.o)
 .text.USART_IrDAConfig
                0x00000000        0x0 C:\Program Files (x86)\Intelitek\easyC V4 for Cortex\#Tools\STM32F103VD\easyCRuntime\easyCRuntimeLib.lib(stm32f10x_usart.o)
 .text.USART_IrDACmd
                0x00000000        0x0 C:\Program Files (x86)\Intelitek\easyC V4 for Cortex\#Tools\STM32F103VD\easyCRuntime\easyCRuntimeLib.lib(stm32f10x_usart.o)
 .text.USART_ClearFlag
                0x00000000        0x0 C:\Program Files (x86)\Intelitek\easyC V4 for Cortex\#Tools\STM32F103VD\easyCRuntime\easyCRuntimeLib.lib(stm32f10x_usart.o)
 .text.USART_GetITStatus
                0x00000000        0x0 C:\Program Files (x86)\Intelitek\easyC V4 for Cortex\#Tools\STM32F103VD\easyCRuntime\easyCRuntimeLib.lib(stm32f10x_usart.o)
 .text.USART_ClearITPendingBit
                0x00000000        0x0 C:\Program Files (x86)\Intelitek\easyC V4 for Cortex\#Tools\STM32F103VD\easyCRuntime\easyCRuntimeLib.lib(stm32f10x_usart.o)
 .text          0x00000000        0x0 C:\Program Files (x86)\Intelitek\easyC V4 for Cortex\#Tools\STM32F103VD\easyCRuntime\easyCRuntimeLib.lib(cortexm3_macro.o)
 .data          0x00000000        0x0 C:\Program Files (x86)\Intelitek\easyC V4 for Cortex\#Tools\STM32F103VD\easyCRuntime\easyCRuntimeLib.lib(cortexm3_macro.o)
 .bss           0x00000000        0x0 C:\Program Files (x86)\Intelitek\easyC V4 for Cortex\#Tools\STM32F103VD\easyCRuntime\easyCRuntimeLib.lib(cortexm3_macro.o)
 .text          0x00000000        0x0 C:\Program Files (x86)\Intelitek\easyC V4 for Cortex\#Tools\STM32F103VD\Link\STM32x_io_putchar_thumb.a(syscalls.o)
 .data          0x00000000        0x0 C:\Program Files (x86)\Intelitek\easyC V4 for Cortex\#Tools\STM32F103VD\Link\STM32x_io_putchar_thumb.a(syscalls.o)
 .bss           0x00000000        0x0 C:\Program Files (x86)\Intelitek\easyC V4 for Cortex\#Tools\STM32F103VD\Link\STM32x_io_putchar_thumb.a(syscalls.o)
 .text._read    0x00000000        0x0 C:\Program Files (x86)\Intelitek\easyC V4 for Cortex\#Tools\STM32F103VD\Link\STM32x_io_putchar_thumb.a(syscalls.o)
 .text._lseek   0x00000000        0x0 C:\Program Files (x86)\Intelitek\easyC V4 for Cortex\#Tools\STM32F103VD\Link\STM32x_io_putchar_thumb.a(syscalls.o)
 .text._open    0x00000000        0x0 C:\Program Files (x86)\Intelitek\easyC V4 for Cortex\#Tools\STM32F103VD\Link\STM32x_io_putchar_thumb.a(syscalls.o)
 .text._close   0x00000000        0x0 C:\Program Files (x86)\Intelitek\easyC V4 for Cortex\#Tools\STM32F103VD\Link\STM32x_io_putchar_thumb.a(syscalls.o)
 .text._exit    0x00000000        0x0 C:\Program Files (x86)\Intelitek\easyC V4 for Cortex\#Tools\STM32F103VD\Link\STM32x_io_putchar_thumb.a(syscalls.o)
 .text._kill    0x00000000        0x0 C:\Program Files (x86)\Intelitek\easyC V4 for Cortex\#Tools\STM32F103VD\Link\STM32x_io_putchar_thumb.a(syscalls.o)
 .text._fstat   0x00000000        0x0 C:\Program Files (x86)\Intelitek\easyC V4 for Cortex\#Tools\STM32F103VD\Link\STM32x_io_putchar_thumb.a(syscalls.o)
 .text._stat    0x00000000        0x0 C:\Program Files (x86)\Intelitek\easyC V4 for Cortex\#Tools\STM32F103VD\Link\STM32x_io_putchar_thumb.a(syscalls.o)
 .text._link    0x00000000        0x0 C:\Program Files (x86)\Intelitek\easyC V4 for Cortex\#Tools\STM32F103VD\Link\STM32x_io_putchar_thumb.a(syscalls.o)
 .text._unlink  0x00000000        0x0 C:\Program Files (x86)\Intelitek\easyC V4 for Cortex\#Tools\STM32F103VD\Link\STM32x_io_putchar_thumb.a(syscalls.o)
 .text._raise   0x00000000        0x0 C:\Program Files (x86)\Intelitek\easyC V4 for Cortex\#Tools\STM32F103VD\Link\STM32x_io_putchar_thumb.a(syscalls.o)
 .text._getpid  0x00000000        0x0 C:\Program Files (x86)\Intelitek\easyC V4 for Cortex\#Tools\STM32F103VD\Link\STM32x_io_putchar_thumb.a(syscalls.o)
 .text._gettimeofday
                0x00000000        0x0 C:\Program Files (x86)\Intelitek\easyC V4 for Cortex\#Tools\STM32F103VD\Link\STM32x_io_putchar_thumb.a(syscalls.o)
 .text._times   0x00000000        0x0 C:\Program Files (x86)\Intelitek\easyC V4 for Cortex\#Tools\STM32F103VD\Link\STM32x_io_putchar_thumb.a(syscalls.o)
 .text.isatty   0x00000000        0x0 C:\Program Files (x86)\Intelitek\easyC V4 for Cortex\#Tools\STM32F103VD\Link\STM32x_io_putchar_thumb.a(syscalls.o)
 .text._isatty  0x00000000        0x0 C:\Program Files (x86)\Intelitek\easyC V4 for Cortex\#Tools\STM32F103VD\Link\STM32x_io_putchar_thumb.a(syscalls.o)
 .text._rename  0x00000000        0x0 C:\Program Files (x86)\Intelitek\easyC V4 for Cortex\#Tools\STM32F103VD\Link\STM32x_io_putchar_thumb.a(syscalls.o)
 .text._system  0x00000000        0x0 C:\Program Files (x86)\Intelitek\easyC V4 for Cortex\#Tools\STM32F103VD\Link\STM32x_io_putchar_thumb.a(syscalls.o)
 .text._sbrk    0x00000000        0x0 C:\Program Files (x86)\Intelitek\easyC V4 for Cortex\#Tools\STM32F103VD\Link\STM32x_io_putchar_thumb.a(syscalls.o)
 .rodata.str1.4
                0x00000000        0x0 C:\Program Files (x86)\Intelitek\easyC V4 for Cortex\#Tools\STM32F103VD\Link\STM32x_io_putchar_thumb.a(syscalls.o)
 .text          0x00000000        0x0 C:\Program Files (x86)\Intelitek\easyC V4 for Cortex\#Tools\STM32F103VD\Link\e_stdio_thumb.a(_sp_printf.o)
 .data          0x00000000        0x0 C:\Program Files (x86)\Intelitek\easyC V4 for Cortex\#Tools\STM32F103VD\Link\e_stdio_thumb.a(_sp_printf.o)
 .bss           0x00000000        0x0 C:\Program Files (x86)\Intelitek\easyC V4 for Cortex\#Tools\STM32F103VD\Link\e_stdio_thumb.a(_sp_printf.o)
 .data          0x00000000        0x0 C:\Program Files (x86)\Intelitek\easyC V4 for Cortex\#Tools\STM32F103VD\Link\e_stdio_thumb.a(_sp_vfprintf.o)
 .bss           0x00000000        0x0 C:\Program Files (x86)\Intelitek\easyC V4 for Cortex\#Tools\STM32F103VD\Link\e_stdio_thumb.a(_sp_vfprintf.o)
 .data          0x00000000        0x0 C:\Program Files (x86)\Intelitek\easyC V4 for Cortex\#Tools\STM32F103VD\Link\e_stdio_thumb.a(_sp_puts.o)
 .bss           0x00000000        0x0 C:\Program Files (x86)\Intelitek\easyC V4 for Cortex\#Tools\STM32F103VD\Link\e_stdio_thumb.a(_sp_puts.o)
 .data          0x00000000        0x0 C:\Program Files (x86)\Intelitek\easyC V4 for Cortex\#Tools\STM32F103VD\Link\e_stdio_thumb.a(_sp_sprintf.o)
 .bss           0x00000000        0x0 C:\Program Files (x86)\Intelitek\easyC V4 for Cortex\#Tools\STM32F103VD\Link\e_stdio_thumb.a(_sp_sprintf.o)
 .data          0x00000000        0x0 C:\Program Files (x86)\Intelitek\easyC V4 for Cortex\#Tools\STM32F103VD\Link\e_stdio_thumb.a(small_dtoa.o)
 .bss           0x00000000        0x0 C:\Program Files (x86)\Intelitek\easyC V4 for Cortex\#Tools\STM32F103VD\Link\e_stdio_thumb.a(small_dtoa.o)
 .data          0x00000000        0x0 C:\Program Files (x86)\Intelitek\easyC V4 for Cortex\#Tools\STM32F103VD\Link\e_stdio_thumb.a(small_wcsrtombs.o)
 .bss           0x00000000        0x0 C:\Program Files (x86)\Intelitek\easyC V4 for Cortex\#Tools\STM32F103VD\Link\e_stdio_thumb.a(small_wcsrtombs.o)
 .data          0x00000000        0x0 C:\Program Files (x86)\Intelitek\easyC V4 for Cortex\#Tools\STM32F103VD\Link\e_stdio_thumb.a(small_wcrtomb.o)
 .bss           0x00000000        0x0 C:\Program Files (x86)\Intelitek\easyC V4 for Cortex\#Tools\STM32F103VD\Link\e_stdio_thumb.a(small_wcrtomb.o)
 .data          0x00000000        0x0 C:\Program Files (x86)\Intelitek\easyC V4 for Cortex\#Tools\STM32F103VD\Link\e_stdio_thumb.a(small_mprec.o)
 .bss           0x00000000        0x0 C:\Program Files (x86)\Intelitek\easyC V4 for Cortex\#Tools\STM32F103VD\Link\e_stdio_thumb.a(small_mprec.o)
 .text          0x00000000        0x0 c:/program files (x86)/intelitek/easyc v4 for cortex/#tools/arm-gcc/bin/../lib/gcc/arm-none-eabi/4.3.2/../../../../arm-none-eabi/lib/thumb2\libc.a(lib_a-abort.o)
 .data          0x00000000        0x0 c:/program files (x86)/intelitek/easyc v4 for cortex/#tools/arm-gcc/bin/../lib/gcc/arm-none-eabi/4.3.2/../../../../arm-none-eabi/lib/thumb2\libc.a(lib_a-abort.o)
 .bss           0x00000000        0x0 c:/program files (x86)/intelitek/easyc v4 for cortex/#tools/arm-gcc/bin/../lib/gcc/arm-none-eabi/4.3.2/../../../../arm-none-eabi/lib/thumb2\libc.a(lib_a-abort.o)
 .debug_frame   0x00000000        0x0 c:/program files (x86)/intelitek/easyc v4 for cortex/#tools/arm-gcc/bin/../lib/gcc/arm-none-eabi/4.3.2/../../../../arm-none-eabi/lib/thumb2\libc.a(lib_a-abort.o)
 .ARM.attributes
                0x00000000        0x0 c:/program files (x86)/intelitek/easyc v4 for cortex/#tools/arm-gcc/bin/../lib/gcc/arm-none-eabi/4.3.2/../../../../arm-none-eabi/lib/thumb2\libc.a(lib_a-abort.o)
 .vfp11_veneer  0x00000000        0x0 c:/program files (x86)/intelitek/easyc v4 for cortex/#tools/arm-gcc/bin/../lib/gcc/arm-none-eabi/4.3.2/../../../../arm-none-eabi/lib/thumb2\libc.a(lib_a-abort.o)
 .janus_2cc_veneer
                0x00000000        0x0 c:/program files (x86)/intelitek/easyc v4 for cortex/#tools/arm-gcc/bin/../lib/gcc/arm-none-eabi/4.3.2/../../../../arm-none-eabi/lib/thumb2\libc.a(lib_a-abort.o)
 .v4_bx         0x00000000        0x0 c:/program files (x86)/intelitek/easyc v4 for cortex/#tools/arm-gcc/bin/../lib/gcc/arm-none-eabi/4.3.2/../../../../arm-none-eabi/lib/thumb2\libc.a(lib_a-abort.o)
 .text          0x00000000        0x0 c:/program files (x86)/intelitek/easyc v4 for cortex/#tools/arm-gcc/bin/../lib/gcc/arm-none-eabi/4.3.2/../../../../arm-none-eabi/lib/thumb2\libc.a(lib_a-errno.o)
 .data          0x00000000        0x0 c:/program files (x86)/intelitek/easyc v4 for cortex/#tools/arm-gcc/bin/../lib/gcc/arm-none-eabi/4.3.2/../../../../arm-none-eabi/lib/thumb2\libc.a(lib_a-errno.o)
 .bss           0x00000000        0x0 c:/program files (x86)/intelitek/easyc v4 for cortex/#tools/arm-gcc/bin/../lib/gcc/arm-none-eabi/4.3.2/../../../../arm-none-eabi/lib/thumb2\libc.a(lib_a-errno.o)
 .debug_frame   0x00000000        0x0 c:/program files (x86)/intelitek/easyc v4 for cortex/#tools/arm-gcc/bin/../lib/gcc/arm-none-eabi/4.3.2/../../../../arm-none-eabi/lib/thumb2\libc.a(lib_a-errno.o)
 .ARM.attributes
                0x00000000        0x0 c:/program files (x86)/intelitek/easyc v4 for cortex/#tools/arm-gcc/bin/../lib/gcc/arm-none-eabi/4.3.2/../../../../arm-none-eabi/lib/thumb2\libc.a(lib_a-errno.o)
 .vfp11_veneer  0x00000000        0x0 c:/program files (x86)/intelitek/easyc v4 for cortex/#tools/arm-gcc/bin/../lib/gcc/arm-none-eabi/4.3.2/../../../../arm-none-eabi/lib/thumb2\libc.a(lib_a-errno.o)
 .janus_2cc_veneer
                0x00000000        0x0 c:/program files (x86)/intelitek/easyc v4 for cortex/#tools/arm-gcc/bin/../lib/gcc/arm-none-eabi/4.3.2/../../../../arm-none-eabi/lib/thumb2\libc.a(lib_a-errno.o)
 .v4_bx         0x00000000        0x0 c:/program files (x86)/intelitek/easyc v4 for cortex/#tools/arm-gcc/bin/../lib/gcc/arm-none-eabi/4.3.2/../../../../arm-none-eabi/lib/thumb2\libc.a(lib_a-errno.o)
 .text          0x00000000        0x0 c:/program files (x86)/intelitek/easyc v4 for cortex/#tools/arm-gcc/bin/../lib/gcc/arm-none-eabi/4.3.2/../../../../arm-none-eabi/lib/thumb2\libc.a(lib_a-impure.o)
 .bss           0x00000000        0x0 c:/program files (x86)/intelitek/easyc v4 for cortex/#tools/arm-gcc/bin/../lib/gcc/arm-none-eabi/4.3.2/../../../../arm-none-eabi/lib/thumb2\libc.a(lib_a-impure.o)
 .rodata        0x00000000        0x0 c:/program files (x86)/intelitek/easyc v4 for cortex/#tools/arm-gcc/bin/../lib/gcc/arm-none-eabi/4.3.2/../../../../arm-none-eabi/lib/thumb2\libc.a(lib_a-impure.o)
 .ARM.attributes
                0x00000000        0x0 c:/program files (x86)/intelitek/easyc v4 for cortex/#tools/arm-gcc/bin/../lib/gcc/arm-none-eabi/4.3.2/../../../../arm-none-eabi/lib/thumb2\libc.a(lib_a-impure.o)
 .vfp11_veneer  0x00000000        0x0 c:/program files (x86)/intelitek/easyc v4 for cortex/#tools/arm-gcc/bin/../lib/gcc/arm-none-eabi/4.3.2/../../../../arm-none-eabi/lib/thumb2\libc.a(lib_a-impure.o)
 .janus_2cc_veneer
                0x00000000        0x0 c:/program files (x86)/intelitek/easyc v4 for cortex/#tools/arm-gcc/bin/../lib/gcc/arm-none-eabi/4.3.2/../../../../arm-none-eabi/lib/thumb2\libc.a(lib_a-impure.o)
 .v4_bx         0x00000000        0x0 c:/program files (x86)/intelitek/easyc v4 for cortex/#tools/arm-gcc/bin/../lib/gcc/arm-none-eabi/4.3.2/../../../../arm-none-eabi/lib/thumb2\libc.a(lib_a-impure.o)
 .data          0x00000000        0x0 c:/program files (x86)/intelitek/easyc v4 for cortex/#tools/arm-gcc/bin/../lib/gcc/arm-none-eabi/4.3.2/../../../../arm-none-eabi/lib/thumb2\libc.a(lib_a-memchr.o)
 .bss           0x00000000        0x0 c:/program files (x86)/intelitek/easyc v4 for cortex/#tools/arm-gcc/bin/../lib/gcc/arm-none-eabi/4.3.2/../../../../arm-none-eabi/lib/thumb2\libc.a(lib_a-memchr.o)
 .debug_frame   0x00000000        0x0 c:/program files (x86)/intelitek/easyc v4 for cortex/#tools/arm-gcc/bin/../lib/gcc/arm-none-eabi/4.3.2/../../../../arm-none-eabi/lib/thumb2\libc.a(lib_a-memchr.o)
 .ARM.attributes
                0x00000000        0x0 c:/program files (x86)/intelitek/easyc v4 for cortex/#tools/arm-gcc/bin/../lib/gcc/arm-none-eabi/4.3.2/../../../../arm-none-eabi/lib/thumb2\libc.a(lib_a-memchr.o)
 .vfp11_veneer  0x00000000        0x0 c:/program files (x86)/intelitek/easyc v4 for cortex/#tools/arm-gcc/bin/../lib/gcc/arm-none-eabi/4.3.2/../../../../arm-none-eabi/lib/thumb2\libc.a(lib_a-memchr.o)
 .janus_2cc_veneer
                0x00000000        0x0 c:/program files (x86)/intelitek/easyc v4 for cortex/#tools/arm-gcc/bin/../lib/gcc/arm-none-eabi/4.3.2/../../../../arm-none-eabi/lib/thumb2\libc.a(lib_a-memchr.o)
 .v4_bx         0x00000000        0x0 c:/program files (x86)/intelitek/easyc v4 for cortex/#tools/arm-gcc/bin/../lib/gcc/arm-none-eabi/4.3.2/../../../../arm-none-eabi/lib/thumb2\libc.a(lib_a-memchr.o)
 .data          0x00000000        0x0 c:/program files (x86)/intelitek/easyc v4 for cortex/#tools/arm-gcc/bin/../lib/gcc/arm-none-eabi/4.3.2/../../../../arm-none-eabi/lib/thumb2\libc.a(lib_a-memcpy.o)
 .bss           0x00000000        0x0 c:/program files (x86)/intelitek/easyc v4 for cortex/#tools/arm-gcc/bin/../lib/gcc/arm-none-eabi/4.3.2/../../../../arm-none-eabi/lib/thumb2\libc.a(lib_a-memcpy.o)
 .debug_frame   0x00000000        0x0 c:/program files (x86)/intelitek/easyc v4 for cortex/#tools/arm-gcc/bin/../lib/gcc/arm-none-eabi/4.3.2/../../../../arm-none-eabi/lib/thumb2\libc.a(lib_a-memcpy.o)
 .ARM.attributes
                0x00000000        0x0 c:/program files (x86)/intelitek/easyc v4 for cortex/#tools/arm-gcc/bin/../lib/gcc/arm-none-eabi/4.3.2/../../../../arm-none-eabi/lib/thumb2\libc.a(lib_a-memcpy.o)
 .vfp11_veneer  0x00000000        0x0 c:/program files (x86)/intelitek/easyc v4 for cortex/#tools/arm-gcc/bin/../lib/gcc/arm-none-eabi/4.3.2/../../../../arm-none-eabi/lib/thumb2\libc.a(lib_a-memcpy.o)
 .janus_2cc_veneer
                0x00000000        0x0 c:/program files (x86)/intelitek/easyc v4 for cortex/#tools/arm-gcc/bin/../lib/gcc/arm-none-eabi/4.3.2/../../../../arm-none-eabi/lib/thumb2\libc.a(lib_a-memcpy.o)
 .v4_bx         0x00000000        0x0 c:/program files (x86)/intelitek/easyc v4 for cortex/#tools/arm-gcc/bin/../lib/gcc/arm-none-eabi/4.3.2/../../../../arm-none-eabi/lib/thumb2\libc.a(lib_a-memcpy.o)
 .data          0x00000000        0x0 c:/program files (x86)/intelitek/easyc v4 for cortex/#tools/arm-gcc/bin/../lib/gcc/arm-none-eabi/4.3.2/../../../../arm-none-eabi/lib/thumb2\libc.a(lib_a-memset.o)
 .bss           0x00000000        0x0 c:/program files (x86)/intelitek/easyc v4 for cortex/#tools/arm-gcc/bin/../lib/gcc/arm-none-eabi/4.3.2/../../../../arm-none-eabi/lib/thumb2\libc.a(lib_a-memset.o)
 .debug_frame   0x00000000        0x0 c:/program files (x86)/intelitek/easyc v4 for cortex/#tools/arm-gcc/bin/../lib/gcc/arm-none-eabi/4.3.2/../../../../arm-none-eabi/lib/thumb2\libc.a(lib_a-memset.o)
 .ARM.attributes
                0x00000000        0x0 c:/program files (x86)/intelitek/easyc v4 for cortex/#tools/arm-gcc/bin/../lib/gcc/arm-none-eabi/4.3.2/../../../../arm-none-eabi/lib/thumb2\libc.a(lib_a-memset.o)
 .vfp11_veneer  0x00000000        0x0 c:/program files (x86)/intelitek/easyc v4 for cortex/#tools/arm-gcc/bin/../lib/gcc/arm-none-eabi/4.3.2/../../../../arm-none-eabi/lib/thumb2\libc.a(lib_a-memset.o)
 .janus_2cc_veneer
                0x00000000        0x0 c:/program files (x86)/intelitek/easyc v4 for cortex/#tools/arm-gcc/bin/../lib/gcc/arm-none-eabi/4.3.2/../../../../arm-none-eabi/lib/thumb2\libc.a(lib_a-memset.o)
 .v4_bx         0x00000000        0x0 c:/program files (x86)/intelitek/easyc v4 for cortex/#tools/arm-gcc/bin/../lib/gcc/arm-none-eabi/4.3.2/../../../../arm-none-eabi/lib/thumb2\libc.a(lib_a-memset.o)
 .data          0x00000000        0x0 c:/program files (x86)/intelitek/easyc v4 for cortex/#tools/arm-gcc/bin/../lib/gcc/arm-none-eabi/4.3.2/../../../../arm-none-eabi/lib/thumb2\libc.a(lib_a-s_isinfd.o)
 .bss           0x00000000        0x0 c:/program files (x86)/intelitek/easyc v4 for cortex/#tools/arm-gcc/bin/../lib/gcc/arm-none-eabi/4.3.2/../../../../arm-none-eabi/lib/thumb2\libc.a(lib_a-s_isinfd.o)
 .debug_frame   0x00000000        0x0 c:/program files (x86)/intelitek/easyc v4 for cortex/#tools/arm-gcc/bin/../lib/gcc/arm-none-eabi/4.3.2/../../../../arm-none-eabi/lib/thumb2\libc.a(lib_a-s_isinfd.o)
 .ARM.attributes
                0x00000000        0x0 c:/program files (x86)/intelitek/easyc v4 for cortex/#tools/arm-gcc/bin/../lib/gcc/arm-none-eabi/4.3.2/../../../../arm-none-eabi/lib/thumb2\libc.a(lib_a-s_isinfd.o)
 .vfp11_veneer  0x00000000        0x0 c:/program files (x86)/intelitek/easyc v4 for cortex/#tools/arm-gcc/bin/../lib/gcc/arm-none-eabi/4.3.2/../../../../arm-none-eabi/lib/thumb2\libc.a(lib_a-s_isinfd.o)
 .janus_2cc_veneer
                0x00000000        0x0 c:/program files (x86)/intelitek/easyc v4 for cortex/#tools/arm-gcc/bin/../lib/gcc/arm-none-eabi/4.3.2/../../../../arm-none-eabi/lib/thumb2\libc.a(lib_a-s_isinfd.o)
 .v4_bx         0x00000000        0x0 c:/program files (x86)/intelitek/easyc v4 for cortex/#tools/arm-gcc/bin/../lib/gcc/arm-none-eabi/4.3.2/../../../../arm-none-eabi/lib/thumb2\libc.a(lib_a-s_isinfd.o)
 .data          0x00000000        0x0 c:/program files (x86)/intelitek/easyc v4 for cortex/#tools/arm-gcc/bin/../lib/gcc/arm-none-eabi/4.3.2/../../../../arm-none-eabi/lib/thumb2\libc.a(lib_a-s_isnand.o)
 .bss           0x00000000        0x0 c:/program files (x86)/intelitek/easyc v4 for cortex/#tools/arm-gcc/bin/../lib/gcc/arm-none-eabi/4.3.2/../../../../arm-none-eabi/lib/thumb2\libc.a(lib_a-s_isnand.o)
 .debug_frame   0x00000000        0x0 c:/program files (x86)/intelitek/easyc v4 for cortex/#tools/arm-gcc/bin/../lib/gcc/arm-none-eabi/4.3.2/../../../../arm-none-eabi/lib/thumb2\libc.a(lib_a-s_isnand.o)
 .ARM.attributes
                0x00000000        0x0 c:/program files (x86)/intelitek/easyc v4 for cortex/#tools/arm-gcc/bin/../lib/gcc/arm-none-eabi/4.3.2/../../../../arm-none-eabi/lib/thumb2\libc.a(lib_a-s_isnand.o)
 .vfp11_veneer  0x00000000        0x0 c:/program files (x86)/intelitek/easyc v4 for cortex/#tools/arm-gcc/bin/../lib/gcc/arm-none-eabi/4.3.2/../../../../arm-none-eabi/lib/thumb2\libc.a(lib_a-s_isnand.o)
 .janus_2cc_veneer
                0x00000000        0x0 c:/program files (x86)/intelitek/easyc v4 for cortex/#tools/arm-gcc/bin/../lib/gcc/arm-none-eabi/4.3.2/../../../../arm-none-eabi/lib/thumb2\libc.a(lib_a-s_isnand.o)
 .v4_bx         0x00000000        0x0 c:/program files (x86)/intelitek/easyc v4 for cortex/#tools/arm-gcc/bin/../lib/gcc/arm-none-eabi/4.3.2/../../../../arm-none-eabi/lib/thumb2\libc.a(lib_a-s_isnand.o)
 .text          0x00000000        0x0 c:/program files (x86)/intelitek/easyc v4 for cortex/#tools/arm-gcc/bin/../lib/gcc/arm-none-eabi/4.3.2/../../../../arm-none-eabi/lib/thumb2\libc.a(lib_a-signal.o)
 .data          0x00000000        0x0 c:/program files (x86)/intelitek/easyc v4 for cortex/#tools/arm-gcc/bin/../lib/gcc/arm-none-eabi/4.3.2/../../../../arm-none-eabi/lib/thumb2\libc.a(lib_a-signal.o)
 .bss           0x00000000        0x0 c:/program files (x86)/intelitek/easyc v4 for cortex/#tools/arm-gcc/bin/../lib/gcc/arm-none-eabi/4.3.2/../../../../arm-none-eabi/lib/thumb2\libc.a(lib_a-signal.o)
 .debug_frame   0x00000000        0x0 c:/program files (x86)/intelitek/easyc v4 for cortex/#tools/arm-gcc/bin/../lib/gcc/arm-none-eabi/4.3.2/../../../../arm-none-eabi/lib/thumb2\libc.a(lib_a-signal.o)
 .ARM.attributes
                0x00000000        0x0 c:/program files (x86)/intelitek/easyc v4 for cortex/#tools/arm-gcc/bin/../lib/gcc/arm-none-eabi/4.3.2/../../../../arm-none-eabi/lib/thumb2\libc.a(lib_a-signal.o)
 .vfp11_veneer  0x00000000        0x0 c:/program files (x86)/intelitek/easyc v4 for cortex/#tools/arm-gcc/bin/../lib/gcc/arm-none-eabi/4.3.2/../../../../arm-none-eabi/lib/thumb2\libc.a(lib_a-signal.o)
 .janus_2cc_veneer
                0x00000000        0x0 c:/program files (x86)/intelitek/easyc v4 for cortex/#tools/arm-gcc/bin/../lib/gcc/arm-none-eabi/4.3.2/../../../../arm-none-eabi/lib/thumb2\libc.a(lib_a-signal.o)
 .v4_bx         0x00000000        0x0 c:/program files (x86)/intelitek/easyc v4 for cortex/#tools/arm-gcc/bin/../lib/gcc/arm-none-eabi/4.3.2/../../../../arm-none-eabi/lib/thumb2\libc.a(lib_a-signal.o)
 .text          0x00000000        0x0 c:/program files (x86)/intelitek/easyc v4 for cortex/#tools/arm-gcc/bin/../lib/gcc/arm-none-eabi/4.3.2/../../../../arm-none-eabi/lib/thumb2\libc.a(lib_a-signalr.o)
 .data          0x00000000        0x0 c:/program files (x86)/intelitek/easyc v4 for cortex/#tools/arm-gcc/bin/../lib/gcc/arm-none-eabi/4.3.2/../../../../arm-none-eabi/lib/thumb2\libc.a(lib_a-signalr.o)
 .bss           0x00000000        0x0 c:/program files (x86)/intelitek/easyc v4 for cortex/#tools/arm-gcc/bin/../lib/gcc/arm-none-eabi/4.3.2/../../../../arm-none-eabi/lib/thumb2\libc.a(lib_a-signalr.o)
 .debug_frame   0x00000000        0x0 c:/program files (x86)/intelitek/easyc v4 for cortex/#tools/arm-gcc/bin/../lib/gcc/arm-none-eabi/4.3.2/../../../../arm-none-eabi/lib/thumb2\libc.a(lib_a-signalr.o)
 .ARM.attributes
                0x00000000        0x0 c:/program files (x86)/intelitek/easyc v4 for cortex/#tools/arm-gcc/bin/../lib/gcc/arm-none-eabi/4.3.2/../../../../arm-none-eabi/lib/thumb2\libc.a(lib_a-signalr.o)
 .vfp11_veneer  0x00000000        0x0 c:/program files (x86)/intelitek/easyc v4 for cortex/#tools/arm-gcc/bin/../lib/gcc/arm-none-eabi/4.3.2/../../../../arm-none-eabi/lib/thumb2\libc.a(lib_a-signalr.o)
 .janus_2cc_veneer
                0x00000000        0x0 c:/program files (x86)/intelitek/easyc v4 for cortex/#tools/arm-gcc/bin/../lib/gcc/arm-none-eabi/4.3.2/../../../../arm-none-eabi/lib/thumb2\libc.a(lib_a-signalr.o)
 .v4_bx         0x00000000        0x0 c:/program files (x86)/intelitek/easyc v4 for cortex/#tools/arm-gcc/bin/../lib/gcc/arm-none-eabi/4.3.2/../../../../arm-none-eabi/lib/thumb2\libc.a(lib_a-signalr.o)
 .data          0x00000000        0x0 c:/program files (x86)/intelitek/easyc v4 for cortex/#tools/arm-gcc/bin/../lib/gcc/arm-none-eabi/4.3.2/../../../../arm-none-eabi/lib/thumb2\libc.a(lib_a-strlen.o)
 .bss           0x00000000        0x0 c:/program files (x86)/intelitek/easyc v4 for cortex/#tools/arm-gcc/bin/../lib/gcc/arm-none-eabi/4.3.2/../../../../arm-none-eabi/lib/thumb2\libc.a(lib_a-strlen.o)
 .debug_frame   0x00000000        0x0 c:/program files (x86)/intelitek/easyc v4 for cortex/#tools/arm-gcc/bin/../lib/gcc/arm-none-eabi/4.3.2/../../../../arm-none-eabi/lib/thumb2\libc.a(lib_a-strlen.o)
 .ARM.attributes
                0x00000000        0x0 c:/program files (x86)/intelitek/easyc v4 for cortex/#tools/arm-gcc/bin/../lib/gcc/arm-none-eabi/4.3.2/../../../../arm-none-eabi/lib/thumb2\libc.a(lib_a-strlen.o)
 .vfp11_veneer  0x00000000        0x0 c:/program files (x86)/intelitek/easyc v4 for cortex/#tools/arm-gcc/bin/../lib/gcc/arm-none-eabi/4.3.2/../../../../arm-none-eabi/lib/thumb2\libc.a(lib_a-strlen.o)
 .janus_2cc_veneer
                0x00000000        0x0 c:/program files (x86)/intelitek/easyc v4 for cortex/#tools/arm-gcc/bin/../lib/gcc/arm-none-eabi/4.3.2/../../../../arm-none-eabi/lib/thumb2\libc.a(lib_a-strlen.o)
 .v4_bx         0x00000000        0x0 c:/program files (x86)/intelitek/easyc v4 for cortex/#tools/arm-gcc/bin/../lib/gcc/arm-none-eabi/4.3.2/../../../../arm-none-eabi/lib/thumb2\libc.a(lib_a-strlen.o)
 .text          0x00000000        0x0 c:/program files (x86)/intelitek/easyc v4 for cortex/#tools/arm-gcc/bin/../lib/gcc/arm-none-eabi/4.3.2/../../../../arm-none-eabi/lib/thumb2\libc.a(lib_a-vsprintf.o)
 .data          0x00000000        0x0 c:/program files (x86)/intelitek/easyc v4 for cortex/#tools/arm-gcc/bin/../lib/gcc/arm-none-eabi/4.3.2/../../../../arm-none-eabi/lib/thumb2\libc.a(lib_a-vsprintf.o)
 .bss           0x00000000        0x0 c:/program files (x86)/intelitek/easyc v4 for cortex/#tools/arm-gcc/bin/../lib/gcc/arm-none-eabi/4.3.2/../../../../arm-none-eabi/lib/thumb2\libc.a(lib_a-vsprintf.o)
 .debug_frame   0x00000000        0x0 c:/program files (x86)/intelitek/easyc v4 for cortex/#tools/arm-gcc/bin/../lib/gcc/arm-none-eabi/4.3.2/../../../../arm-none-eabi/lib/thumb2\libc.a(lib_a-vsprintf.o)
 .ARM.attributes
                0x00000000        0x0 c:/program files (x86)/intelitek/easyc v4 for cortex/#tools/arm-gcc/bin/../lib/gcc/arm-none-eabi/4.3.2/../../../../arm-none-eabi/lib/thumb2\libc.a(lib_a-vsprintf.o)
 .vfp11_veneer  0x00000000        0x0 c:/program files (x86)/intelitek/easyc v4 for cortex/#tools/arm-gcc/bin/../lib/gcc/arm-none-eabi/4.3.2/../../../../arm-none-eabi/lib/thumb2\libc.a(lib_a-vsprintf.o)
 .janus_2cc_veneer
                0x00000000        0x0 c:/program files (x86)/intelitek/easyc v4 for cortex/#tools/arm-gcc/bin/../lib/gcc/arm-none-eabi/4.3.2/../../../../arm-none-eabi/lib/thumb2\libc.a(lib_a-vsprintf.o)
 .v4_bx         0x00000000        0x0 c:/program files (x86)/intelitek/easyc v4 for cortex/#tools/arm-gcc/bin/../lib/gcc/arm-none-eabi/4.3.2/../../../../arm-none-eabi/lib/thumb2\libc.a(lib_a-vsprintf.o)
 .text          0x00000000        0x0 c:/program files (x86)/intelitek/easyc v4 for cortex/#tools/arm-gcc/bin/../lib/gcc/arm-none-eabi/4.3.2/../../../../arm-none-eabi/lib/thumb2\libc.a(lib_a-mallocr.o)
 .data          0x00000000        0x0 c:/program files (x86)/intelitek/easyc v4 for cortex/#tools/arm-gcc/bin/../lib/gcc/arm-none-eabi/4.3.2/../../../../arm-none-eabi/lib/thumb2\libc.a(lib_a-mallocr.o)
 .bss           0x00000000        0x0 c:/program files (x86)/intelitek/easyc v4 for cortex/#tools/arm-gcc/bin/../lib/gcc/arm-none-eabi/4.3.2/../../../../arm-none-eabi/lib/thumb2\libc.a(lib_a-mallocr.o)
 .debug_frame   0x00000000        0x0 c:/program files (x86)/intelitek/easyc v4 for cortex/#tools/arm-gcc/bin/../lib/gcc/arm-none-eabi/4.3.2/../../../../arm-none-eabi/lib/thumb2\libc.a(lib_a-mallocr.o)
 .ARM.attributes
                0x00000000        0x0 c:/program files (x86)/intelitek/easyc v4 for cortex/#tools/arm-gcc/bin/../lib/gcc/arm-none-eabi/4.3.2/../../../../arm-none-eabi/lib/thumb2\libc.a(lib_a-mallocr.o)
 .vfp11_veneer  0x00000000        0x0 c:/program files (x86)/intelitek/easyc v4 for cortex/#tools/arm-gcc/bin/../lib/gcc/arm-none-eabi/4.3.2/../../../../arm-none-eabi/lib/thumb2\libc.a(lib_a-mallocr.o)
 .janus_2cc_veneer
                0x00000000        0x0 c:/program files (x86)/intelitek/easyc v4 for cortex/#tools/arm-gcc/bin/../lib/gcc/arm-none-eabi/4.3.2/../../../../arm-none-eabi/lib/thumb2\libc.a(lib_a-mallocr.o)
 .v4_bx         0x00000000        0x0 c:/program files (x86)/intelitek/easyc v4 for cortex/#tools/arm-gcc/bin/../lib/gcc/arm-none-eabi/4.3.2/../../../../arm-none-eabi/lib/thumb2\libc.a(lib_a-mallocr.o)
 .text          0x00000000        0x0 c:/program files (x86)/intelitek/easyc v4 for cortex/#tools/arm-gcc/bin/../lib/gcc/arm-none-eabi/4.3.2/../../../../arm-none-eabi/lib/thumb2\libc.a(lib_a-mlock.o)
 .data          0x00000000        0x0 c:/program files (x86)/intelitek/easyc v4 for cortex/#tools/arm-gcc/bin/../lib/gcc/arm-none-eabi/4.3.2/../../../../arm-none-eabi/lib/thumb2\libc.a(lib_a-mlock.o)
 .bss           0x00000000        0x0 c:/program files (x86)/intelitek/easyc v4 for cortex/#tools/arm-gcc/bin/../lib/gcc/arm-none-eabi/4.3.2/../../../../arm-none-eabi/lib/thumb2\libc.a(lib_a-mlock.o)
 .debug_frame   0x00000000        0x0 c:/program files (x86)/intelitek/easyc v4 for cortex/#tools/arm-gcc/bin/../lib/gcc/arm-none-eabi/4.3.2/../../../../arm-none-eabi/lib/thumb2\libc.a(lib_a-mlock.o)
 .ARM.attributes
                0x00000000        0x0 c:/program files (x86)/intelitek/easyc v4 for cortex/#tools/arm-gcc/bin/../lib/gcc/arm-none-eabi/4.3.2/../../../../arm-none-eabi/lib/thumb2\libc.a(lib_a-mlock.o)
 .vfp11_veneer  0x00000000        0x0 c:/program files (x86)/intelitek/easyc v4 for cortex/#tools/arm-gcc/bin/../lib/gcc/arm-none-eabi/4.3.2/../../../../arm-none-eabi/lib/thumb2\libc.a(lib_a-mlock.o)
 .janus_2cc_veneer
                0x00000000        0x0 c:/program files (x86)/intelitek/easyc v4 for cortex/#tools/arm-gcc/bin/../lib/gcc/arm-none-eabi/4.3.2/../../../../arm-none-eabi/lib/thumb2\libc.a(lib_a-mlock.o)
 .v4_bx         0x00000000        0x0 c:/program files (x86)/intelitek/easyc v4 for cortex/#tools/arm-gcc/bin/../lib/gcc/arm-none-eabi/4.3.2/../../../../arm-none-eabi/lib/thumb2\libc.a(lib_a-mlock.o)
 .text          0x00000000        0x0 c:/program files (x86)/intelitek/easyc v4 for cortex/#tools/arm-gcc/bin/../lib/gcc/arm-none-eabi/4.3.2/../../../../arm-none-eabi/lib/thumb2\libc.a(lib_a-reent.o)
 .data          0x00000000        0x0 c:/program files (x86)/intelitek/easyc v4 for cortex/#tools/arm-gcc/bin/../lib/gcc/arm-none-eabi/4.3.2/../../../../arm-none-eabi/lib/thumb2\libc.a(lib_a-reent.o)
 .bss           0x00000000        0x0 c:/program files (x86)/intelitek/easyc v4 for cortex/#tools/arm-gcc/bin/../lib/gcc/arm-none-eabi/4.3.2/../../../../arm-none-eabi/lib/thumb2\libc.a(lib_a-reent.o)
 .debug_frame   0x00000000        0x0 c:/program files (x86)/intelitek/easyc v4 for cortex/#tools/arm-gcc/bin/../lib/gcc/arm-none-eabi/4.3.2/../../../../arm-none-eabi/lib/thumb2\libc.a(lib_a-reent.o)
 .ARM.attributes
                0x00000000        0x0 c:/program files (x86)/intelitek/easyc v4 for cortex/#tools/arm-gcc/bin/../lib/gcc/arm-none-eabi/4.3.2/../../../../arm-none-eabi/lib/thumb2\libc.a(lib_a-reent.o)
 COMMON         0x00000000        0x0 c:/program files (x86)/intelitek/easyc v4 for cortex/#tools/arm-gcc/bin/../lib/gcc/arm-none-eabi/4.3.2/../../../../arm-none-eabi/lib/thumb2\libc.a(lib_a-reent.o)
 .vfp11_veneer  0x00000000        0x0 c:/program files (x86)/intelitek/easyc v4 for cortex/#tools/arm-gcc/bin/../lib/gcc/arm-none-eabi/4.3.2/../../../../arm-none-eabi/lib/thumb2\libc.a(lib_a-reent.o)
 .janus_2cc_veneer
                0x00000000        0x0 c:/program files (x86)/intelitek/easyc v4 for cortex/#tools/arm-gcc/bin/../lib/gcc/arm-none-eabi/4.3.2/../../../../arm-none-eabi/lib/thumb2\libc.a(lib_a-reent.o)
 .v4_bx         0x00000000        0x0 c:/program files (x86)/intelitek/easyc v4 for cortex/#tools/arm-gcc/bin/../lib/gcc/arm-none-eabi/4.3.2/../../../../arm-none-eabi/lib/thumb2\libc.a(lib_a-reent.o)
 .text          0x00000000        0x0 c:/program files (x86)/intelitek/easyc v4 for cortex/#tools/arm-gcc/bin/../lib/gcc/arm-none-eabi/4.3.2/../../../../arm-none-eabi/lib/thumb2\libc.a(lib_a-sbrkr.o)
 .data          0x00000000        0x0 c:/program files (x86)/intelitek/easyc v4 for cortex/#tools/arm-gcc/bin/../lib/gcc/arm-none-eabi/4.3.2/../../../../arm-none-eabi/lib/thumb2\libc.a(lib_a-sbrkr.o)
 .bss           0x00000000        0x0 c:/program files (x86)/intelitek/easyc v4 for cortex/#tools/arm-gcc/bin/../lib/gcc/arm-none-eabi/4.3.2/../../../../arm-none-eabi/lib/thumb2\libc.a(lib_a-sbrkr.o)
 .debug_frame   0x00000000        0x0 c:/program files (x86)/intelitek/easyc v4 for cortex/#tools/arm-gcc/bin/../lib/gcc/arm-none-eabi/4.3.2/../../../../arm-none-eabi/lib/thumb2\libc.a(lib_a-sbrkr.o)
 .ARM.attributes
                0x00000000        0x0 c:/program files (x86)/intelitek/easyc v4 for cortex/#tools/arm-gcc/bin/../lib/gcc/arm-none-eabi/4.3.2/../../../../arm-none-eabi/lib/thumb2\libc.a(lib_a-sbrkr.o)
 .vfp11_veneer  0x00000000        0x0 c:/program files (x86)/intelitek/easyc v4 for cortex/#tools/arm-gcc/bin/../lib/gcc/arm-none-eabi/4.3.2/../../../../arm-none-eabi/lib/thumb2\libc.a(lib_a-sbrkr.o)
 .janus_2cc_veneer
                0x00000000        0x0 c:/program files (x86)/intelitek/easyc v4 for cortex/#tools/arm-gcc/bin/../lib/gcc/arm-none-eabi/4.3.2/../../../../arm-none-eabi/lib/thumb2\libc.a(lib_a-sbrkr.o)
 .v4_bx         0x00000000        0x0 c:/program files (x86)/intelitek/easyc v4 for cortex/#tools/arm-gcc/bin/../lib/gcc/arm-none-eabi/4.3.2/../../../../arm-none-eabi/lib/thumb2\libc.a(lib_a-sbrkr.o)
 .text          0x00000000        0x0 c:/program files (x86)/intelitek/easyc v4 for cortex/#tools/arm-gcc/bin/../lib/gcc/arm-none-eabi/4.3.2/../../../../arm-none-eabi/lib/thumb2\libc.a(lib_a-freer.o)
 .data          0x00000000        0x0 c:/program files (x86)/intelitek/easyc v4 for cortex/#tools/arm-gcc/bin/../lib/gcc/arm-none-eabi/4.3.2/../../../../arm-none-eabi/lib/thumb2\libc.a(lib_a-freer.o)
 .bss           0x00000000        0x0 c:/program files (x86)/intelitek/easyc v4 for cortex/#tools/arm-gcc/bin/../lib/gcc/arm-none-eabi/4.3.2/../../../../arm-none-eabi/lib/thumb2\libc.a(lib_a-freer.o)
 .debug_frame   0x00000000        0x0 c:/program files (x86)/intelitek/easyc v4 for cortex/#tools/arm-gcc/bin/../lib/gcc/arm-none-eabi/4.3.2/../../../../arm-none-eabi/lib/thumb2\libc.a(lib_a-freer.o)
 .ARM.attributes
                0x00000000        0x0 c:/program files (x86)/intelitek/easyc v4 for cortex/#tools/arm-gcc/bin/../lib/gcc/arm-none-eabi/4.3.2/../../../../arm-none-eabi/lib/thumb2\libc.a(lib_a-freer.o)
 .vfp11_veneer  0x00000000        0x0 c:/program files (x86)/intelitek/easyc v4 for cortex/#tools/arm-gcc/bin/../lib/gcc/arm-none-eabi/4.3.2/../../../../arm-none-eabi/lib/thumb2\libc.a(lib_a-freer.o)
 .janus_2cc_veneer
                0x00000000        0x0 c:/program files (x86)/intelitek/easyc v4 for cortex/#tools/arm-gcc/bin/../lib/gcc/arm-none-eabi/4.3.2/../../../../arm-none-eabi/lib/thumb2\libc.a(lib_a-freer.o)
 .v4_bx         0x00000000        0x0 c:/program files (x86)/intelitek/easyc v4 for cortex/#tools/arm-gcc/bin/../lib/gcc/arm-none-eabi/4.3.2/../../../../arm-none-eabi/lib/thumb2\libc.a(lib_a-freer.o)
 .data          0x00000000        0x0 c:/program files (x86)/intelitek/easyc v4 for cortex/#tools/arm-gcc/bin/../lib/gcc/arm-none-eabi/4.3.2/thumb2\libgcc.a(_udivsi3.o)
 .bss           0x00000000        0x0 c:/program files (x86)/intelitek/easyc v4 for cortex/#tools/arm-gcc/bin/../lib/gcc/arm-none-eabi/4.3.2/thumb2\libgcc.a(_udivsi3.o)
 .debug_frame   0x00000000        0x0 c:/program files (x86)/intelitek/easyc v4 for cortex/#tools/arm-gcc/bin/../lib/gcc/arm-none-eabi/4.3.2/thumb2\libgcc.a(_udivsi3.o)
 .ARM.attributes
                0x00000000        0x0 c:/program files (x86)/intelitek/easyc v4 for cortex/#tools/arm-gcc/bin/../lib/gcc/arm-none-eabi/4.3.2/thumb2\libgcc.a(_udivsi3.o)
 .vfp11_veneer  0x00000000        0x0 c:/program files (x86)/intelitek/easyc v4 for cortex/#tools/arm-gcc/bin/../lib/gcc/arm-none-eabi/4.3.2/thumb2\libgcc.a(_udivsi3.o)
 .janus_2cc_veneer
                0x00000000        0x0 c:/program files (x86)/intelitek/easyc v4 for cortex/#tools/arm-gcc/bin/../lib/gcc/arm-none-eabi/4.3.2/thumb2\libgcc.a(_udivsi3.o)
 .v4_bx         0x00000000        0x0 c:/program files (x86)/intelitek/easyc v4 for cortex/#tools/arm-gcc/bin/../lib/gcc/arm-none-eabi/4.3.2/thumb2\libgcc.a(_udivsi3.o)
 .data          0x00000000        0x0 c:/program files (x86)/intelitek/easyc v4 for cortex/#tools/arm-gcc/bin/../lib/gcc/arm-none-eabi/4.3.2/thumb2\libgcc.a(_divsi3.o)
 .bss           0x00000000        0x0 c:/program files (x86)/intelitek/easyc v4 for cortex/#tools/arm-gcc/bin/../lib/gcc/arm-none-eabi/4.3.2/thumb2\libgcc.a(_divsi3.o)
 .debug_frame   0x00000000        0x0 c:/program files (x86)/intelitek/easyc v4 for cortex/#tools/arm-gcc/bin/../lib/gcc/arm-none-eabi/4.3.2/thumb2\libgcc.a(_divsi3.o)
 .ARM.attributes
                0x00000000        0x0 c:/program files (x86)/intelitek/easyc v4 for cortex/#tools/arm-gcc/bin/../lib/gcc/arm-none-eabi/4.3.2/thumb2\libgcc.a(_divsi3.o)
 .vfp11_veneer  0x00000000        0x0 c:/program files (x86)/intelitek/easyc v4 for cortex/#tools/arm-gcc/bin/../lib/gcc/arm-none-eabi/4.3.2/thumb2\libgcc.a(_divsi3.o)
 .janus_2cc_veneer
                0x00000000        0x0 c:/program files (x86)/intelitek/easyc v4 for cortex/#tools/arm-gcc/bin/../lib/gcc/arm-none-eabi/4.3.2/thumb2\libgcc.a(_divsi3.o)
 .v4_bx         0x00000000        0x0 c:/program files (x86)/intelitek/easyc v4 for cortex/#tools/arm-gcc/bin/../lib/gcc/arm-none-eabi/4.3.2/thumb2\libgcc.a(_divsi3.o)
 .data          0x00000000        0x0 c:/program files (x86)/intelitek/easyc v4 for cortex/#tools/arm-gcc/bin/../lib/gcc/arm-none-eabi/4.3.2/thumb2\libgcc.a(_dvmd_tls.o)
 .bss           0x00000000        0x0 c:/program files (x86)/intelitek/easyc v4 for cortex/#tools/arm-gcc/bin/../lib/gcc/arm-none-eabi/4.3.2/thumb2\libgcc.a(_dvmd_tls.o)
 .ARM.attributes
                0x00000000        0x0 c:/program files (x86)/intelitek/easyc v4 for cortex/#tools/arm-gcc/bin/../lib/gcc/arm-none-eabi/4.3.2/thumb2\libgcc.a(_dvmd_tls.o)
 .vfp11_veneer  0x00000000        0x0 c:/program files (x86)/intelitek/easyc v4 for cortex/#tools/arm-gcc/bin/../lib/gcc/arm-none-eabi/4.3.2/thumb2\libgcc.a(_dvmd_tls.o)
 .janus_2cc_veneer
                0x00000000        0x0 c:/program files (x86)/intelitek/easyc v4 for cortex/#tools/arm-gcc/bin/../lib/gcc/arm-none-eabi/4.3.2/thumb2\libgcc.a(_dvmd_tls.o)
 .v4_bx         0x00000000        0x0 c:/program files (x86)/intelitek/easyc v4 for cortex/#tools/arm-gcc/bin/../lib/gcc/arm-none-eabi/4.3.2/thumb2\libgcc.a(_dvmd_tls.o)
 .data          0x00000000        0x0 c:/program files (x86)/intelitek/easyc v4 for cortex/#tools/arm-gcc/bin/../lib/gcc/arm-none-eabi/4.3.2/thumb2\libgcc.a(_arm_addsubdf3.o)
 .bss           0x00000000        0x0 c:/program files (x86)/intelitek/easyc v4 for cortex/#tools/arm-gcc/bin/../lib/gcc/arm-none-eabi/4.3.2/thumb2\libgcc.a(_arm_addsubdf3.o)
 .ARM.attributes
                0x00000000        0x0 c:/program files (x86)/intelitek/easyc v4 for cortex/#tools/arm-gcc/bin/../lib/gcc/arm-none-eabi/4.3.2/thumb2\libgcc.a(_arm_addsubdf3.o)
 .vfp11_veneer  0x00000000        0x0 c:/program files (x86)/intelitek/easyc v4 for cortex/#tools/arm-gcc/bin/../lib/gcc/arm-none-eabi/4.3.2/thumb2\libgcc.a(_arm_addsubdf3.o)
 .janus_2cc_veneer
                0x00000000        0x0 c:/program files (x86)/intelitek/easyc v4 for cortex/#tools/arm-gcc/bin/../lib/gcc/arm-none-eabi/4.3.2/thumb2\libgcc.a(_arm_addsubdf3.o)
 .v4_bx         0x00000000        0x0 c:/program files (x86)/intelitek/easyc v4 for cortex/#tools/arm-gcc/bin/../lib/gcc/arm-none-eabi/4.3.2/thumb2\libgcc.a(_arm_addsubdf3.o)
 .data          0x00000000        0x0 c:/program files (x86)/intelitek/easyc v4 for cortex/#tools/arm-gcc/bin/../lib/gcc/arm-none-eabi/4.3.2/thumb2\libgcc.a(_arm_muldivdf3.o)
 .bss           0x00000000        0x0 c:/program files (x86)/intelitek/easyc v4 for cortex/#tools/arm-gcc/bin/../lib/gcc/arm-none-eabi/4.3.2/thumb2\libgcc.a(_arm_muldivdf3.o)
 .ARM.attributes
                0x00000000        0x0 c:/program files (x86)/intelitek/easyc v4 for cortex/#tools/arm-gcc/bin/../lib/gcc/arm-none-eabi/4.3.2/thumb2\libgcc.a(_arm_muldivdf3.o)
 .vfp11_veneer  0x00000000        0x0 c:/program files (x86)/intelitek/easyc v4 for cortex/#tools/arm-gcc/bin/../lib/gcc/arm-none-eabi/4.3.2/thumb2\libgcc.a(_arm_muldivdf3.o)
 .janus_2cc_veneer
                0x00000000        0x0 c:/program files (x86)/intelitek/easyc v4 for cortex/#tools/arm-gcc/bin/../lib/gcc/arm-none-eabi/4.3.2/thumb2\libgcc.a(_arm_muldivdf3.o)
 .v4_bx         0x00000000        0x0 c:/program files (x86)/intelitek/easyc v4 for cortex/#tools/arm-gcc/bin/../lib/gcc/arm-none-eabi/4.3.2/thumb2\libgcc.a(_arm_muldivdf3.o)
 .data          0x00000000        0x0 c:/program files (x86)/intelitek/easyc v4 for cortex/#tools/arm-gcc/bin/../lib/gcc/arm-none-eabi/4.3.2/thumb2\libgcc.a(_arm_cmpdf2.o)
 .bss           0x00000000        0x0 c:/program files (x86)/intelitek/easyc v4 for cortex/#tools/arm-gcc/bin/../lib/gcc/arm-none-eabi/4.3.2/thumb2\libgcc.a(_arm_cmpdf2.o)
 .ARM.attributes
                0x00000000        0x0 c:/program files (x86)/intelitek/easyc v4 for cortex/#tools/arm-gcc/bin/../lib/gcc/arm-none-eabi/4.3.2/thumb2\libgcc.a(_arm_cmpdf2.o)
 .vfp11_veneer  0x00000000        0x0 c:/program files (x86)/intelitek/easyc v4 for cortex/#tools/arm-gcc/bin/../lib/gcc/arm-none-eabi/4.3.2/thumb2\libgcc.a(_arm_cmpdf2.o)
 .janus_2cc_veneer
                0x00000000        0x0 c:/program files (x86)/intelitek/easyc v4 for cortex/#tools/arm-gcc/bin/../lib/gcc/arm-none-eabi/4.3.2/thumb2\libgcc.a(_arm_cmpdf2.o)
 .v4_bx         0x00000000        0x0 c:/program files (x86)/intelitek/easyc v4 for cortex/#tools/arm-gcc/bin/../lib/gcc/arm-none-eabi/4.3.2/thumb2\libgcc.a(_arm_cmpdf2.o)
 .data          0x00000000        0x0 c:/program files (x86)/intelitek/easyc v4 for cortex/#tools/arm-gcc/bin/../lib/gcc/arm-none-eabi/4.3.2/thumb2\libgcc.a(_arm_fixdfsi.o)
 .bss           0x00000000        0x0 c:/program files (x86)/intelitek/easyc v4 for cortex/#tools/arm-gcc/bin/../lib/gcc/arm-none-eabi/4.3.2/thumb2\libgcc.a(_arm_fixdfsi.o)
 .ARM.attributes
                0x00000000        0x0 c:/program files (x86)/intelitek/easyc v4 for cortex/#tools/arm-gcc/bin/../lib/gcc/arm-none-eabi/4.3.2/thumb2\libgcc.a(_arm_fixdfsi.o)
 .vfp11_veneer  0x00000000        0x0 c:/program files (x86)/intelitek/easyc v4 for cortex/#tools/arm-gcc/bin/../lib/gcc/arm-none-eabi/4.3.2/thumb2\libgcc.a(_arm_fixdfsi.o)
 .janus_2cc_veneer
                0x00000000        0x0 c:/program files (x86)/intelitek/easyc v4 for cortex/#tools/arm-gcc/bin/../lib/gcc/arm-none-eabi/4.3.2/thumb2\libgcc.a(_arm_fixdfsi.o)
 .v4_bx         0x00000000        0x0 c:/program files (x86)/intelitek/easyc v4 for cortex/#tools/arm-gcc/bin/../lib/gcc/arm-none-eabi/4.3.2/thumb2\libgcc.a(_arm_fixdfsi.o)
 .text          0x00000000        0x0 c:/program files (x86)/intelitek/easyc v4 for cortex/#tools/arm-gcc/bin/../lib/gcc/arm-none-eabi/4.3.2/thumb2\libgcc.a(_arm_truncdfsf2.o)
 .data          0x00000000        0x0 c:/program files (x86)/intelitek/easyc v4 for cortex/#tools/arm-gcc/bin/../lib/gcc/arm-none-eabi/4.3.2/thumb2\libgcc.a(_arm_truncdfsf2.o)
 .bss           0x00000000        0x0 c:/program files (x86)/intelitek/easyc v4 for cortex/#tools/arm-gcc/bin/../lib/gcc/arm-none-eabi/4.3.2/thumb2\libgcc.a(_arm_truncdfsf2.o)
 .ARM.attributes
                0x00000000        0x0 c:/program files (x86)/intelitek/easyc v4 for cortex/#tools/arm-gcc/bin/../lib/gcc/arm-none-eabi/4.3.2/thumb2\libgcc.a(_arm_truncdfsf2.o)
 .vfp11_veneer  0x00000000        0x0 c:/program files (x86)/intelitek/easyc v4 for cortex/#tools/arm-gcc/bin/../lib/gcc/arm-none-eabi/4.3.2/thumb2\libgcc.a(_arm_truncdfsf2.o)
 .janus_2cc_veneer
                0x00000000        0x0 c:/program files (x86)/intelitek/easyc v4 for cortex/#tools/arm-gcc/bin/../lib/gcc/arm-none-eabi/4.3.2/thumb2\libgcc.a(_arm_truncdfsf2.o)
 .v4_bx         0x00000000        0x0 c:/program files (x86)/intelitek/easyc v4 for cortex/#tools/arm-gcc/bin/../lib/gcc/arm-none-eabi/4.3.2/thumb2\libgcc.a(_arm_truncdfsf2.o)
 .data          0x00000000        0x0 c:/program files (x86)/intelitek/easyc v4 for cortex/#tools/arm-gcc/bin/../lib/gcc/arm-none-eabi/4.3.2/thumb2\libgcc.a(_arm_addsubsf3.o)
 .bss           0x00000000        0x0 c:/program files (x86)/intelitek/easyc v4 for cortex/#tools/arm-gcc/bin/../lib/gcc/arm-none-eabi/4.3.2/thumb2\libgcc.a(_arm_addsubsf3.o)
 .ARM.attributes
                0x00000000        0x0 c:/program files (x86)/intelitek/easyc v4 for cortex/#tools/arm-gcc/bin/../lib/gcc/arm-none-eabi/4.3.2/thumb2\libgcc.a(_arm_addsubsf3.o)
 .vfp11_veneer  0x00000000        0x0 c:/program files (x86)/intelitek/easyc v4 for cortex/#tools/arm-gcc/bin/../lib/gcc/arm-none-eabi/4.3.2/thumb2\libgcc.a(_arm_addsubsf3.o)
 .janus_2cc_veneer
                0x00000000        0x0 c:/program files (x86)/intelitek/easyc v4 for cortex/#tools/arm-gcc/bin/../lib/gcc/arm-none-eabi/4.3.2/thumb2\libgcc.a(_arm_addsubsf3.o)
 .v4_bx         0x00000000        0x0 c:/program files (x86)/intelitek/easyc v4 for cortex/#tools/arm-gcc/bin/../lib/gcc/arm-none-eabi/4.3.2/thumb2\libgcc.a(_arm_addsubsf3.o)
 .data          0x00000000        0x0 c:/program files (x86)/intelitek/easyc v4 for cortex/#tools/arm-gcc/bin/../lib/gcc/arm-none-eabi/4.3.2/thumb2\libgcc.a(_arm_muldivsf3.o)
 .bss           0x00000000        0x0 c:/program files (x86)/intelitek/easyc v4 for cortex/#tools/arm-gcc/bin/../lib/gcc/arm-none-eabi/4.3.2/thumb2\libgcc.a(_arm_muldivsf3.o)
 .ARM.attributes
                0x00000000        0x0 c:/program files (x86)/intelitek/easyc v4 for cortex/#tools/arm-gcc/bin/../lib/gcc/arm-none-eabi/4.3.2/thumb2\libgcc.a(_arm_muldivsf3.o)
 .vfp11_veneer  0x00000000        0x0 c:/program files (x86)/intelitek/easyc v4 for cortex/#tools/arm-gcc/bin/../lib/gcc/arm-none-eabi/4.3.2/thumb2\libgcc.a(_arm_muldivsf3.o)
 .janus_2cc_veneer
                0x00000000        0x0 c:/program files (x86)/intelitek/easyc v4 for cortex/#tools/arm-gcc/bin/../lib/gcc/arm-none-eabi/4.3.2/thumb2\libgcc.a(_arm_muldivsf3.o)
 .v4_bx         0x00000000        0x0 c:/program files (x86)/intelitek/easyc v4 for cortex/#tools/arm-gcc/bin/../lib/gcc/arm-none-eabi/4.3.2/thumb2\libgcc.a(_arm_muldivsf3.o)
 .text          0x00000000        0x0 c:/program files (x86)/intelitek/easyc v4 for cortex/#tools/arm-gcc/bin/../lib/gcc/arm-none-eabi/4.3.2/thumb2\libgcc.a(_arm_cmpsf2.o)
 .data          0x00000000        0x0 c:/program files (x86)/intelitek/easyc v4 for cortex/#tools/arm-gcc/bin/../lib/gcc/arm-none-eabi/4.3.2/thumb2\libgcc.a(_arm_cmpsf2.o)
 .bss           0x00000000        0x0 c:/program files (x86)/intelitek/easyc v4 for cortex/#tools/arm-gcc/bin/../lib/gcc/arm-none-eabi/4.3.2/thumb2\libgcc.a(_arm_cmpsf2.o)
 .ARM.attributes
                0x00000000        0x0 c:/program files (x86)/intelitek/easyc v4 for cortex/#tools/arm-gcc/bin/../lib/gcc/arm-none-eabi/4.3.2/thumb2\libgcc.a(_arm_cmpsf2.o)
 .vfp11_veneer  0x00000000        0x0 c:/program files (x86)/intelitek/easyc v4 for cortex/#tools/arm-gcc/bin/../lib/gcc/arm-none-eabi/4.3.2/thumb2\libgcc.a(_arm_cmpsf2.o)
 .janus_2cc_veneer
                0x00000000        0x0 c:/program files (x86)/intelitek/easyc v4 for cortex/#tools/arm-gcc/bin/../lib/gcc/arm-none-eabi/4.3.2/thumb2\libgcc.a(_arm_cmpsf2.o)
 .v4_bx         0x00000000        0x0 c:/program files (x86)/intelitek/easyc v4 for cortex/#tools/arm-gcc/bin/../lib/gcc/arm-none-eabi/4.3.2/thumb2\libgcc.a(_arm_cmpsf2.o)
 .data          0x00000000        0x0 c:/program files (x86)/intelitek/easyc v4 for cortex/#tools/arm-gcc/bin/../lib/gcc/arm-none-eabi/4.3.2/thumb2\libgcc.a(_arm_fixunssfsi.o)
 .bss           0x00000000        0x0 c:/program files (x86)/intelitek/easyc v4 for cortex/#tools/arm-gcc/bin/../lib/gcc/arm-none-eabi/4.3.2/thumb2\libgcc.a(_arm_fixunssfsi.o)
 .ARM.attributes
                0x00000000        0x0 c:/program files (x86)/intelitek/easyc v4 for cortex/#tools/arm-gcc/bin/../lib/gcc/arm-none-eabi/4.3.2/thumb2\libgcc.a(_arm_fixunssfsi.o)
 .vfp11_veneer  0x00000000        0x0 c:/program files (x86)/intelitek/easyc v4 for cortex/#tools/arm-gcc/bin/../lib/gcc/arm-none-eabi/4.3.2/thumb2\libgcc.a(_arm_fixunssfsi.o)
 .janus_2cc_veneer
                0x00000000        0x0 c:/program files (x86)/intelitek/easyc v4 for cortex/#tools/arm-gcc/bin/../lib/gcc/arm-none-eabi/4.3.2/thumb2\libgcc.a(_arm_fixunssfsi.o)
 .v4_bx         0x00000000        0x0 c:/program files (x86)/intelitek/easyc v4 for cortex/#tools/arm-gcc/bin/../lib/gcc/arm-none-eabi/4.3.2/thumb2\libgcc.a(_arm_fixunssfsi.o)

Memory Configuration

Name             Origin             Length             Attributes
RAM              0x20000000         0x00010000         xrw
FLASH            0x08000000         0x0005f800         xr
FLASHB1          0x00000000         0x00000000         xr
EXTMEMB0         0x00000000         0x00000000         xr
EXTMEMB1         0x00000000         0x00000000         xr
EXTMEMB2         0x00000000         0x00000000         xr
EXTMEMB3         0x00000000         0x00000000         xr
*default*        0x00000000         0xffffffff

Linker script and memory map

LOAD C:\Program Files (x86)\Intelitek\easyC V4 for Cortex\#Tools\STM32F103VD\Startup\Startup.o
LOAD C:\Users\Vex-Laptop02\AppData\Roaming\Intelitek\easyC V4 for Cortex\Temp\Main.o
LOAD C:\Users\Vex-Laptop02\AppData\Roaming\Intelitek\easyC V4 for Cortex\Temp\MainIO.o
LOAD C:\Users\Vex-Laptop02\AppData\Roaming\Intelitek\easyC V4 for Cortex\Temp\Globals.o
LOAD C:\Users\Vex-Laptop02\AppData\Roaming\Intelitek\easyC V4 for Cortex\Temp\Initialize.o
LOAD C:\Users\Vex-Laptop02\AppData\Roaming\Intelitek\easyC V4 for Cortex\Temp\Autonomous.o
LOAD C:\Users\Vex-Laptop02\AppData\Roaming\Intelitek\easyC V4 for Cortex\Temp\OperatorControl.o
LOAD C:\Users\Vex-Laptop02\AppData\Roaming\Intelitek\easyC V4 for Cortex\Temp\moveBack.o
LOAD C:\Users\Vex-Laptop02\AppData\Roaming\Intelitek\easyC V4 for Cortex\Temp\motorStop.o
LOAD C:\Program Files (x86)\Intelitek\easyC V4 for Cortex\#Tools\STM32F103VD\easyCRuntime\easyCRuntimeLib.lib
LOAD C:\Program Files (x86)\Intelitek\easyC V4 for Cortex\#Tools\STM32F103VD\Link\STM32x_io_putchar_thumb.a
LOAD C:\Program Files (x86)\Intelitek\easyC V4 for Cortex\#Tools\STM32F103VD\Link\e_stdio_thumb.a
                0x00000400                __Stack_Size = 0x400
                0x00000400                PROVIDE (_Stack_Size, __Stack_Size)
                0x2000fc00                __Stack_Init = (_estack - __Stack_Size)
                0x2000fc00                PROVIDE (_Stack_Init, __Stack_Init)
                0x00000100                _Minimum_Stack_Size = 0x100
                0x00000000                PROVIDE (Undefined_Handler, 0x0)
                0x00000000                PROVIDE (SWI_Handler, 0x0)
                0x00000000                PROVIDE (IRQ_Handler, 0x0)
                0x00000000                PROVIDE (Prefetch_Handler, 0x0)
                0x00000000                PROVIDE (Abort_Handler, 0x0)
                0x00000000                PROVIDE (FIQ_Handler, 0x0)
                0x00000000                PROVIDE (NMIException, 0x0)
                0x00000000                PROVIDE (NMI_Handler, 0x0)
                0x00000000                PROVIDE (HardFaultException, 0x0)
                0x00000000                PROVIDE (HardFault_Handler, 0x0)
                0x00000000                PROVIDE (MemManageException, 0x0)
                0x00000000                PROVIDE (MemManage_Handler, 0x0)
                0x00000000                PROVIDE (BusFaultException, 0x0)
                0x00000000                PROVIDE (BusFault_Handler, 0x0)
                0x00000000                PROVIDE (UsageFaultException, 0x0)
                0x00000000                PROVIDE (UsageFault_Handler, 0x0)
                0x00000000                PROVIDE (SVCHandler, 0x0)
                0x00000000                PROVIDE (SVC_Handler, 0x0)
                0x00000000                PROVIDE (DebugMonitor, 0x0)
                0x00000000                PROVIDE (DebugMon_Handler, 0x0)
                0x00000000                PROVIDE (PendSVC, 0x0)
                0x00000000                PROVIDE (PendSV_Handler, 0x0)
                0x00000000                PROVIDE (SysTickHandler, 0x0)
                0x00000000                PROVIDE (SysTick_Handler, 0x0)
                0x00000000                PROVIDE (WWDG_IRQHandler, 0x0)
                0x00000000                PROVIDE (PVD_IRQHandler, 0x0)
                0x00000000                PROVIDE (TAMPER_IRQHandler, 0x0)
                0x00000000                PROVIDE (RTC_IRQHandler, 0x0)
                0x00000000                PROVIDE (FLASH_IRQHandler, 0x0)
                0x00000000                PROVIDE (RCC_IRQHandler, 0x0)
                0x00000000                PROVIDE (EXTI0_IRQHandler, 0x0)
                0x00000000                PROVIDE (EXTI1_IRQHandler, 0x0)
                0x00000000                PROVIDE (EXTI2_IRQHandler, 0x0)
                0x00000000                PROVIDE (EXTI3_IRQHandler, 0x0)
                0x00000000                PROVIDE (EXTI4_IRQHandler, 0x0)
                0x00000000                PROVIDE (DMAChannel1_IRQHandler, 0x0)
                0x00000000                PROVIDE (DMAChannel2_IRQHandler, 0x0)
                0x00000000                PROVIDE (DMAChannel3_IRQHandler, 0x0)
                0x00000000                PROVIDE (DMAChannel4_IRQHandler, 0x0)
                0x00000000                PROVIDE (DMAChannel5_IRQHandler, 0x0)
                0x00000000                PROVIDE (DMAChannel6_IRQHandler, 0x0)
                0x00000000                PROVIDE (DMAChannel7_IRQHandler, 0x0)
                0x00000000                PROVIDE (DMA1_Channel1_IRQHandler, 0x0)
                0x00000000                PROVIDE (DMA1_Channel2_IRQHandler, 0x0)
                0x00000000                PROVIDE (DMA1_Channel3_IRQHandler, 0x0)
                0x00000000                PROVIDE (DMA1_Channel4_IRQHandler, 0x0)
                0x00000000                PROVIDE (DMA1_Channel5_IRQHandler, 0x0)
                0x00000000                PROVIDE (DMA1_Channel6_IRQHandler, 0x0)
                0x00000000                PROVIDE (DMA1_Channel7_IRQHandler, 0x0)
                0x00000000                PROVIDE (ADC_IRQHandler, 0x0)
                0x00000000                PROVIDE (ADC1_2_IRQHandler, 0x0)
                0x00000000                PROVIDE (USB_HP_CAN_TX_IRQHandler, 0x0)
                0x00000000                PROVIDE (USB_HP_CAN1_TX_IRQHandler, 0x0)
                0x00000000                PROVIDE (USB_LP_CAN_RX0_IRQHandler, 0x0)
                0x00000000                PROVIDE (USB_LP_CAN1_RX0_IRQHandler, 0x0)
                0x00000000                PROVIDE (CAN_RX1_IRQHandler, 0x0)
                0x00000000                PROVIDE (CAN1_RX1_IRQHandler, 0x0)
                0x00000000                PROVIDE (CAN_SCE_IRQHandler, 0x0)
                0x00000000                PROVIDE (CAN1_SCE_IRQHandler, 0x0)
                0x00000000                PROVIDE (EXTI9_5_IRQHandler, 0x0)
                0x00000000                PROVIDE (TIM1_BRK_IRQHandler, 0x0)
                0x00000000                PROVIDE (TIM1_UP_IRQHandler, 0x0)
                0x00000000                PROVIDE (TIM1_TRG_COM_IRQHandler, 0x0)
                0x00000000                PROVIDE (TIM1_CC_IRQHandler, 0x0)
                0x00000000                PROVIDE (TIM2_IRQHandler, 0x0)
                0x00000000                PROVIDE (TIM3_IRQHandler, 0x0)
                0x00000000                PROVIDE (TIM4_IRQHandler, 0x0)
                0x00000000                PROVIDE (I2C1_EV_IRQHandler, 0x0)
                0x00000000                PROVIDE (I2C1_ER_IRQHandler, 0x0)
                0x00000000                PROVIDE (I2C2_EV_IRQHandler, 0x0)
                0x00000000                PROVIDE (I2C2_ER_IRQHandler, 0x0)
                0x00000000                PROVIDE (SPI1_IRQHandler, 0x0)
                0x00000000                PROVIDE (SPI2_IRQHandler, 0x0)
                0x00000000                PROVIDE (USART1_IRQHandler, 0x0)
                0x00000000                PROVIDE (USART2_IRQHandler, 0x0)
                0x00000000                PROVIDE (USART3_IRQHandler, 0x0)
                0x00000000                PROVIDE (EXTI15_10_IRQHandler, 0x0)
                0x00000000                PROVIDE (RTCAlarm_IRQHandler, 0x0)
                0x00000000                PROVIDE (USBWakeUp_IRQHandler, 0x0)
                0x00000000                PROVIDE (TIM8_BRK_IRQHandler, 0x0)
                0x00000000                PROVIDE (TIM8_UP_IRQHandler, 0x0)
                0x00000000                PROVIDE (TIM8_TRG_COM_IRQHandler, 0x0)
                0x00000000                PROVIDE (TIM8_CC_IRQHandler, 0x0)
                0x00000000                PROVIDE (ADC3_IRQHandler, 0x0)
                0x00000000                PROVIDE (FSMC_IRQHandler, 0x0)
                0x00000000                PROVIDE (SDIO_IRQHandler, 0x0)
                0x00000000                PROVIDE (TIM5_IRQHandler, 0x0)
                0x00000000                PROVIDE (SPI3_IRQHandler, 0x0)
                0x00000000                PROVIDE (UART4_IRQHandler, 0x0)
                0x00000000                PROVIDE (UART5_IRQHandler, 0x0)
                0x00000000                PROVIDE (TIM6_IRQHandler, 0x0)
                0x00000000                PROVIDE (TIM7_IRQHandler, 0x0)
                0x00000000                PROVIDE (DMA2_Channel1_IRQHandler, 0x0)
                0x00000000                PROVIDE (DMA2_Channel2_IRQHandler, 0x0)
                0x00000000                PROVIDE (DMA2_Channel3_IRQHandler, 0x0)
                0x00000000                PROVIDE (DMA2_Channel4_5_IRQHandler, 0x0)
                0x42000000                PERIPH_BB_BASE = 0x42000000
                0x22000000                SRAM_BB_BASE = 0x22000000
                0x20000000                SRAM_BASE = 0x20000000
                0x40000000                PERIPH_BASE = 0x40000000
                0x40022000                PROVIDE (FLASH_BASE, 0x40022000)
                0x1ffff800                PROVIDE (OB_BASE, 0x1ffff800)
                0x40000000                APB1PERIPH_BASE = PERIPH_BASE
                0x40010000                APB2PERIPH_BASE = (PERIPH_BASE + 0x10000)
                0x40020000                AHBPERIPH_BASE = (PERIPH_BASE + 0x20000)
                0x40000000                PROVIDE (TIM2, (APB1PERIPH_BASE + 0x0))
                0x40000400                PROVIDE (TIM3, (APB1PERIPH_BASE + 0x400))
                0x40000800                PROVIDE (TIM4, (APB1PERIPH_BASE + 0x800))
                0x40002800                PROVIDE (RTC, (APB1PERIPH_BASE + 0x2800))
                0x40002c00                PROVIDE (WWDG, (APB1PERIPH_BASE + 0x2c00))
                0x40003000                PROVIDE (IWDG, (APB1PERIPH_BASE + 0x3000))
                0x40003800                PROVIDE (SPI2, (APB1PERIPH_BASE + 0x3800))
                0x40004400                PROVIDE (USART2, (APB1PERIPH_BASE + 0x4400))
                0x40004800                PROVIDE (USART3, (APB1PERIPH_BASE + 0x4800))
                0x40005400                PROVIDE (I2C1, (APB1PERIPH_BASE + 0x5400))
                0x40005800                PROVIDE (I2C2, (APB1PERIPH_BASE + 0x5800))
                0x40006400                PROVIDE (CAN, (APB1PERIPH_BASE + 0x6400))
                0x40006c00                PROVIDE (BKP, (APB1PERIPH_BASE + 0x6c00))
                0x40007000                PROVIDE (PWR, (APB1PERIPH_BASE + 0x7000))
                0x40010000                PROVIDE (AFIO, (APB2PERIPH_BASE + 0x0))
                0x40010400                PROVIDE (EXTI, (APB2PERIPH_BASE + 0x400))
                0x40010800                PROVIDE (GPIOA, (APB2PERIPH_BASE + 0x800))
                0x40010c00                PROVIDE (GPIOB, (APB2PERIPH_BASE + 0xc00))
                0x40011000                PROVIDE (GPIOC, (APB2PERIPH_BASE + 0x1000))
                0x40011400                PROVIDE (GPIOD, (APB2PERIPH_BASE + 0x1400))
                0x40011800                PROVIDE (GPIOE, (APB2PERIPH_BASE + 0x1800))
                0x40012400                PROVIDE (ADC1, (APB2PERIPH_BASE + 0x2400))
                0x40012800                PROVIDE (ADC2, (APB2PERIPH_BASE + 0x2800))
                0x40012c00                PROVIDE (TIM1, (APB2PERIPH_BASE + 0x2c00))
                0x40013000                PROVIDE (SPI1, (APB2PERIPH_BASE + 0x3000))
                0x40013800                PROVIDE (USART1, (APB2PERIPH_BASE + 0x3800))
                0x40020000                PROVIDE (DMA, (AHBPERIPH_BASE + 0x0))
                0x40020008                PROVIDE (DMA_Channel1, (AHBPERIPH_BASE + 0x8))
                0x4002001c                PROVIDE (DMA_Channel2, (AHBPERIPH_BASE + 0x1c))
                0x40020030                PROVIDE (DMA_Channel3, (AHBPERIPH_BASE + 0x30))
                0x40020044                PROVIDE (DMA_Channel4, (AHBPERIPH_BASE + 0x44))
                0x40020058                PROVIDE (DMA_Channel5, (AHBPERIPH_BASE + 0x58))
                0x4002006c                PROVIDE (DMA_Channel6, (AHBPERIPH_BASE + 0x6c))
                0x40020080                PROVIDE (DMA_Channel7, (AHBPERIPH_BASE + 0x80))
                0x40021000                PROVIDE (RCC, (AHBPERIPH_BASE + 0x1000))
                0xe000e000                SCS_BASE = 0xe000e000
                0xe000e010                PROVIDE (SysTick, (SCS_BASE + 0x10))
                0xe000e100                PROVIDE (NVIC, (SCS_BASE + 0x100))
                0xe000ed00                PROVIDE (SCB, (SCS_BASE + 0xd00))
                0x20010000                _estack = 0x20010000

.isr_vector     0x08000000      0x130
                0x08000000                . = ALIGN (0x4)
 *(.isr_vector)
 .isr_vector    0x08000000      0x130 C:\Program Files (x86)\Intelitek\easyC V4 for Cortex\#Tools\STM32F103VD\Startup\Startup.o
                0x08000000                g_pfnVectors
                0x08000130                . = ALIGN (0x4)

.flashtext      0x08000130        0x0
                0x08000130                . = ALIGN (0x4)
 *(.flashtext)
                0x08000130                . = ALIGN (0x4)

.text           0x08000130     0xba7c
                0x08000130                . = ALIGN (0x4)
 *(.text)
 .text          0x08000130      0xc30 C:\Program Files (x86)\Intelitek\easyC V4 for Cortex\#Tools\STM32F103VD\Link\e_stdio_thumb.a(_sp_vfprintf.o)
                0x08000130                _vfprintf_r
                0x08000d3c                vfprintf
 .text          0x08000d60       0x80 C:\Program Files (x86)\Intelitek\easyC V4 for Cortex\#Tools\STM32F103VD\Link\e_stdio_thumb.a(_sp_puts.o)
                0x08000d60                _SMALL_PRINTF_puts
                0x08000db8                puts
 .text          0x08000de0       0x48 C:\Program Files (x86)\Intelitek\easyC V4 for Cortex\#Tools\STM32F103VD\Link\e_stdio_thumb.a(_sp_sprintf.o)
                0x08000de0                sprintf
 .text          0x08000e28     0x10e0 C:\Program Files (x86)\Intelitek\easyC V4 for Cortex\#Tools\STM32F103VD\Link\e_stdio_thumb.a(small_dtoa.o)
                0x08000fa8                _dtoa_r
 .text          0x08001f08       0xbc C:\Program Files (x86)\Intelitek\easyC V4 for Cortex\#Tools\STM32F103VD\Link\e_stdio_thumb.a(small_wcsrtombs.o)
                0x08001f08                _wcsrtombs_r
                0x08001f9c                wcsrtombs
 .text          0x08001fc4       0x28 C:\Program Files (x86)\Intelitek\easyC V4 for Cortex\#Tools\STM32F103VD\Link\e_stdio_thumb.a(small_wcrtomb.o)
                0x08001fc4                _wcrtomb_r
                0x08001fc8                wcrtomb
 *fill*         0x08001fec        0x4 00
 .text          0x08001ff0      0x8b0 C:\Program Files (x86)\Intelitek\easyC V4 for Cortex\#Tools\STM32F103VD\Link\e_stdio_thumb.a(small_mprec.o)
                0x080025c0                _small_ratio
                0x0800281c                _small_s2b
                0x080022b4                __small_mcmp
                0x08002710                _small_pow5mult
                0x080022f8                __small_mdiff
                0x08002044                _small_lo0bits
                0x08002664                _small_multadd
                0x08002434                _small_b2d
                0x080020c0                _small_multiply
                0x080023e4                _small_ulp
                0x080024ec                _small_d2b
                0x08002614                small__mprec_log10
                0x08002218                _small_lshift
                0x08001ff0                _small_hi0bits
                0x080020ac                _small_i2b
 .text          0x080028a0       0x80 c:/program files (x86)/intelitek/easyc v4 for cortex/#tools/arm-gcc/bin/../lib/gcc/arm-none-eabi/4.3.2/../../../../arm-none-eabi/lib/thumb2\libc.a(lib_a-memchr.o)
                0x080028a0                memchr
 .text          0x08002920       0x98 c:/program files (x86)/intelitek/easyc v4 for cortex/#tools/arm-gcc/bin/../lib/gcc/arm-none-eabi/4.3.2/../../../../arm-none-eabi/lib/thumb2\libc.a(lib_a-memcpy.o)
                0x08002920                memcpy
 .text          0x080029b8       0x88 c:/program files (x86)/intelitek/easyc v4 for cortex/#tools/arm-gcc/bin/../lib/gcc/arm-none-eabi/4.3.2/../../../../arm-none-eabi/lib/thumb2\libc.a(lib_a-memset.o)
                0x080029b8                memset
 .text          0x08002a40       0x24 c:/program files (x86)/intelitek/easyc v4 for cortex/#tools/arm-gcc/bin/../lib/gcc/arm-none-eabi/4.3.2/../../../../arm-none-eabi/lib/thumb2\libc.a(lib_a-s_isinfd.o)
                0x08002a40                __isinfd
 .text          0x08002a64       0x20 c:/program files (x86)/intelitek/easyc v4 for cortex/#tools/arm-gcc/bin/../lib/gcc/arm-none-eabi/4.3.2/../../../../arm-none-eabi/lib/thumb2\libc.a(lib_a-s_isnand.o)
                0x08002a64                __isnand
 .text          0x08002a84       0x34 c:/program files (x86)/intelitek/easyc v4 for cortex/#tools/arm-gcc/bin/../lib/gcc/arm-none-eabi/4.3.2/../../../../arm-none-eabi/lib/thumb2\libc.a(lib_a-strlen.o)
                0x08002a84                strlen
 .text          0x08002ab8       0x8c c:/program files (x86)/intelitek/easyc v4 for cortex/#tools/arm-gcc/bin/../lib/gcc/arm-none-eabi/4.3.2/thumb2\libgcc.a(_udivsi3.o)
                0x08002ab8                __udivsi3
                0x08002ab8                __aeabi_uidiv
                0x08002b30                __aeabi_uidivmod
 .text          0x08002b44       0xb0 c:/program files (x86)/intelitek/easyc v4 for cortex/#tools/arm-gcc/bin/../lib/gcc/arm-none-eabi/4.3.2/thumb2\libgcc.a(_divsi3.o)
                0x08002b44                __aeabi_idiv
                0x08002b44                __divsi3
                0x08002be0                __aeabi_idivmod
 .text          0x08002bf4        0x4 c:/program files (x86)/intelitek/easyc v4 for cortex/#tools/arm-gcc/bin/../lib/gcc/arm-none-eabi/4.3.2/thumb2\libgcc.a(_dvmd_tls.o)
                0x08002bf4                __aeabi_ldiv0
                0x08002bf4                __aeabi_idiv0
 .text          0x08002bf8      0x370 c:/program files (x86)/intelitek/easyc v4 for cortex/#tools/arm-gcc/bin/../lib/gcc/arm-none-eabi/4.3.2/thumb2\libgcc.a(_arm_addsubdf3.o)
                0x08002f0c                __floatdidf
                0x08002e9c                __floatsidf
                0x08002e7c                __aeabi_ui2d
                0x08002bf8                __aeabi_drsub
                0x08002ec0                __extendsfdf2
                0x08002c04                __adddf3
                0x08002e7c                __floatunsidf
                0x08002c04                __aeabi_dadd
                0x08002efc                __aeabi_ul2d
                0x08002c00                __aeabi_dsub
                0x08002efc                __floatundidf
                0x08002e9c                __aeabi_i2d
                0x08002f0c                __aeabi_l2d
                0x08002ec0                __aeabi_f2d
                0x08002c00                __subdf3
 .text          0x08002f68      0x424 c:/program files (x86)/intelitek/easyc v4 for cortex/#tools/arm-gcc/bin/../lib/gcc/arm-none-eabi/4.3.2/thumb2\libgcc.a(_arm_muldivdf3.o)
                0x080031bc                __aeabi_ddiv
                0x08002f68                __aeabi_dmul
                0x080031bc                __divdf3
                0x08002f68                __muldf3
 .text          0x0800338c      0x10c c:/program files (x86)/intelitek/easyc v4 for cortex/#tools/arm-gcc/bin/../lib/gcc/arm-none-eabi/4.3.2/thumb2\libgcc.a(_arm_cmpdf2.o)
                0x0800345c                __aeabi_dcmple
                0x0800339c                __cmpdf2
                0x0800339c                __eqdf2
                0x0800338c                __gtdf2
                0x08003424                __aeabi_cdcmple
                0x08003414                __aeabi_cdrcmple
                0x08003394                __ltdf2
                0x08003448                __aeabi_dcmplt
                0x08003394                __ledf2
                0x08003484                __aeabi_dcmpgt
                0x08003470                __aeabi_dcmpge
                0x0800339c                __nedf2
                0x08003434                __aeabi_dcmpeq
                0x08003424                __aeabi_cdcmpeq
                0x0800338c                __gedf2
 .text          0x08003498       0x50 c:/program files (x86)/intelitek/easyc v4 for cortex/#tools/arm-gcc/bin/../lib/gcc/arm-none-eabi/4.3.2/thumb2\libgcc.a(_arm_fixdfsi.o)
                0x08003498                __fixdfsi
                0x08003498                __aeabi_d2iz
 .text          0x080034e8      0x21c c:/program files (x86)/intelitek/easyc v4 for cortex/#tools/arm-gcc/bin/../lib/gcc/arm-none-eabi/4.3.2/thumb2\libgcc.a(_arm_addsubsf3.o)
                0x080034f4                __aeabi_fadd
                0x080034f0                __subsf3
                0x0800365c                __aeabi_i2f
                0x080034f0                __aeabi_fsub
                0x08003688                __floatdisf
                0x0800365c                __floatsisf
                0x08003678                __floatundisf
                0x08003654                __aeabi_ui2f
                0x08003688                __aeabi_l2f
                0x08003678                __aeabi_ul2f
                0x080034e8                __aeabi_frsub
                0x08003654                __floatunsisf
                0x080034f4                __addsf3
 .text          0x08003704      0x2a0 c:/program files (x86)/intelitek/easyc v4 for cortex/#tools/arm-gcc/bin/../lib/gcc/arm-none-eabi/4.3.2/thumb2\libgcc.a(_arm_muldivsf3.o)
                0x0800386c                __divsf3
                0x0800386c                __aeabi_fdiv
                0x08003704                __mulsf3
                0x08003704                __aeabi_fmul
 .text          0x080039a4       0x40 c:/program files (x86)/intelitek/easyc v4 for cortex/#tools/arm-gcc/bin/../lib/gcc/arm-none-eabi/4.3.2/thumb2\libgcc.a(_arm_fixunssfsi.o)
                0x080039a4                __aeabi_f2uiz
                0x080039a4                __fixunssfsi
 *(.text.*)
 .text.Reset_Handler
                0x080039e4      0x2b8 C:\Program Files (x86)\Intelitek\easyC V4 for Cortex\#Tools\STM32F103VD\Startup\Startup.o
                0x080039e4                Reset_Handler
 .text.StartCompetition
                0x08003c9c      0x544 C:\Program Files (x86)\Intelitek\easyC V4 for Cortex\#Tools\STM32F103VD\Startup\Startup.o
                0x08003c9c                StartCompetition
 .text.main     0x080041e0       0x24 C:\Users\Vex-Laptop02\AppData\Roaming\Intelitek\easyC V4 for Cortex\Temp\Main.o
                0x080041e0                main
 .text.IO_Initialization
                0x08004204       0x70 C:\Users\Vex-Laptop02\AppData\Roaming\Intelitek\easyC V4 for Cortex\Temp\MainIO.o
                0x08004204                IO_Initialization
 .text.Initialize
                0x08004274        0xc C:\Users\Vex-Laptop02\AppData\Roaming\Intelitek\easyC V4 for Cortex\Temp\Initialize.o
                0x08004274                Initialize
 .text.Autonomous
                0x08004280       0x20 C:\Users\Vex-Laptop02\AppData\Roaming\Intelitek\easyC V4 for Cortex\Temp\Autonomous.o
                0x08004280                Autonomous
 .text.OperatorControl
                0x080042a0       0xa4 C:\Users\Vex-Laptop02\AppData\Roaming\Intelitek\easyC V4 for Cortex\Temp\OperatorControl.o
                0x080042a0                OperatorControl
 .text.moveBack
                0x08004344       0x38 C:\Users\Vex-Laptop02\AppData\Roaming\Intelitek\easyC V4 for Cortex\Temp\moveBack.o
                0x08004344                moveBack
 .text.motorStop
                0x0800437c       0x38 C:\Users\Vex-Laptop02\AppData\Roaming\Intelitek\easyC V4 for Cortex\Temp\motorStop.o
                0x0800437c                motorStop
 .text.WriteUserBit
                0x080043b4       0x2c C:\Program Files (x86)\Intelitek\easyC V4 for Cortex\#Tools\STM32F103VD\easyCRuntime\easyCRuntimeLib.lib(easyCRuntime.o)
                0x080043b4                WriteUserBit
 .text.ReadUserBit
                0x080043e0       0x28 C:\Program Files (x86)\Intelitek\easyC V4 for Cortex\#Tools\STM32F103VD\easyCRuntime\easyCRuntimeLib.lib(easyCRuntime.o)
                0x080043e0                ReadUserBit
 .text.ResetCore
                0x08004408       0x38 C:\Program Files (x86)\Intelitek\easyC V4 for Cortex\#Tools\STM32F103VD\easyCRuntime\easyCRuntimeLib.lib(easyCRuntime.o)
                0x08004408                ResetCore
 .text.IsAutonomous
                0x08004440       0x4c C:\Program Files (x86)\Intelitek\easyC V4 for Cortex\#Tools\STM32F103VD\easyCRuntime\easyCRuntimeLib.lib(easyCRuntime.o)
                0x08004440                IsAutonomous
 .text.IsEnabled
                0x0800448c       0x1c C:\Program Files (x86)\Intelitek\easyC V4 for Cortex\#Tools\STM32F103VD\easyCRuntime\easyCRuntimeLib.lib(easyCRuntime.o)
                0x0800448c                IsEnabled
 .text.IsCompTemplate
                0x080044a8       0x5c C:\Program Files (x86)\Intelitek\easyC V4 for Cortex\#Tools\STM32F103VD\easyCRuntime\easyCRuntimeLib.lib(easyCRuntime.o)
                0x080044a8                IsCompTemplate
 .text.SetTeamInfo
                0x08004504       0x74 C:\Program Files (x86)\Intelitek\easyC V4 for Cortex\#Tools\STM32F103VD\easyCRuntime\easyCRuntimeLib.lib(easyCRuntime.o)
                0x08004504                SetTeamInfo
 .text.SetCompetitionMode
                0x08004578       0x48 C:\Program Files (x86)\Intelitek\easyC V4 for Cortex\#Tools\STM32F103VD\easyCRuntime\easyCRuntimeLib.lib(easyCRuntime.o)
                0x08004578                SetCompetitionMode
 .text.SetAutonomousMode
                0x080045c0       0x20 C:\Program Files (x86)\Intelitek\easyC V4 for Cortex\#Tools\STM32F103VD\easyCRuntime\easyCRuntimeLib.lib(easyCRuntime.o)
                0x080045c0                SetAutonomousMode
 .text.UpdateCompTime
                0x080045e0       0x60 C:\Program Files (x86)\Intelitek\easyC V4 for Cortex\#Tools\STM32F103VD\easyCRuntime\easyCRuntimeLib.lib(easyCRuntime.o)
                0x080045e0                UpdateCompTime
 .text.IsOnLine
                0x08004640       0x1c C:\Program Files (x86)\Intelitek\easyC V4 for Cortex\#Tools\STM32F103VD\easyCRuntime\easyCRuntimeLib.lib(easyCRuntime.o)
                0x08004640                IsOnLine
 .text.SetOnLine
                0x0800465c       0x54 C:\Program Files (x86)\Intelitek\easyC V4 for Cortex\#Tools\STM32F103VD\easyCRuntime\easyCRuntimeLib.lib(easyCRuntime.o)
                0x0800465c                SetOnLine
 .text.ReadGlobalsData
                0x080046b0       0x9c C:\Program Files (x86)\Intelitek\easyC V4 for Cortex\#Tools\STM32F103VD\easyCRuntime\easyCRuntimeLib.lib(easyCRuntime.o)
                0x080046b0                ReadGlobalsData
 .text.WriteGlobalData
                0x0800474c       0xe0 C:\Program Files (x86)\Intelitek\easyC V4 for Cortex\#Tools\STM32F103VD\easyCRuntime\easyCRuntimeLib.lib(easyCRuntime.o)
                0x0800474c                WriteGlobalData
 .text.GetMsClock
                0x0800482c       0x20 C:\Program Files (x86)\Intelitek\easyC V4 for Cortex\#Tools\STM32F103VD\easyCRuntime\easyCRuntimeLib.lib(Clock.o)
                0x0800482c                GetMsClock
 .text.GetGameTime
                0x0800484c       0x40 C:\Program Files (x86)\Intelitek\easyC V4 for Cortex\#Tools\STM32F103VD\easyCRuntime\easyCRuntimeLib.lib(Clock.o)
                0x0800484c                GetGameTime
 .text.Wait     0x0800488c       0x44 C:\Program Files (x86)\Intelitek\easyC V4 for Cortex\#Tools\STM32F103VD\easyCRuntime\easyCRuntimeLib.lib(Clock.o)
                0x0800488c                Wait
 .text.SysTickHandler
                0x080048d0      0x774 C:\Program Files (x86)\Intelitek\easyC V4 for Cortex\#Tools\STM32F103VD\easyCRuntime\easyCRuntimeLib.lib(Clock.o)
                0x080048d0                SysTickHandler
 .text.TIM2_IRQHandler
                0x08005044      0x190 C:\Program Files (x86)\Intelitek\easyC V4 for Cortex\#Tools\STM32F103VD\easyCRuntime\easyCRuntimeLib.lib(Clock.o)
                0x08005044                TIM2_IRQHandler
 .text.TIM3_IRQHandler
                0x080051d4      0x1a0 C:\Program Files (x86)\Intelitek\easyC V4 for Cortex\#Tools\STM32F103VD\easyCRuntime\easyCRuntimeLib.lib(Clock.o)
                0x080051d4                TIM3_IRQHandler
 .text.__io_putchar
                0x08005374       0xe4 C:\Program Files (x86)\Intelitek\easyC V4 for Cortex\#Tools\STM32F103VD\easyCRuntime\easyCRuntimeLib.lib(Comm.o)
                0x08005374                __io_putchar
 .text.SPI_Initialize
                0x08005458      0x18c C:\Program Files (x86)\Intelitek\easyC V4 for Cortex\#Tools\STM32F103VD\easyCRuntime\easyCRuntimeLib.lib(Comm.o)
                0x08005458                SPI_Initialize
 .text.UpdateMaster
                0x080055e4      0x3f8 C:\Program Files (x86)\Intelitek\easyC V4 for Cortex\#Tools\STM32F103VD\easyCRuntime\easyCRuntimeLib.lib(Comm.o)
                0x080055e4                UpdateMaster
 .text.Invoke_SPI_Transfer
                0x080059dc      0x154 C:\Program Files (x86)\Intelitek\easyC V4 for Cortex\#Tools\STM32F103VD\easyCRuntime\easyCRuntimeLib.lib(Comm.o)
                0x080059dc                Invoke_SPI_Transfer
 .text.WaitTillMasterIsReadyForSpiData
                0x08005b30       0xe0 C:\Program Files (x86)\Intelitek\easyC V4 for Cortex\#Tools\STM32F103VD\easyCRuntime\easyCRuntimeLib.lib(Comm.o)
                0x08005b30                WaitTillMasterIsReadyForSpiData
 .text.Handle_Configuration
                0x08005c10      0x144 C:\Program Files (x86)\Intelitek\easyC V4 for Cortex\#Tools\STM32F103VD\easyCRuntime\easyCRuntimeLib.lib(Comm.o)
                0x08005c10                Handle_Configuration
 .text.Handle_Data_From_Crystal
                0x08005d54      0x1a0 C:\Program Files (x86)\Intelitek\easyC V4 for Cortex\#Tools\STM32F103VD\easyCRuntime\easyCRuntimeLib.lib(Comm.o)
                0x08005d54                Handle_Data_From_Crystal
 .text.USART1_IRQHandler
                0x08005ef4      0x16c C:\Program Files (x86)\Intelitek\easyC V4 for Cortex\#Tools\STM32F103VD\easyCRuntime\easyCRuntimeLib.lib(Comm.o)
                0x08005ef4                USART1_IRQHandler
 .text.RCC_Configuration
                0x08006060       0xb4 C:\Program Files (x86)\Intelitek\easyC V4 for Cortex\#Tools\STM32F103VD\easyCRuntime\easyCRuntimeLib.lib(Config.o)
                0x08006060                RCC_Configuration
 .text.NVIC_Configuration
                0x08006114      0x134 C:\Program Files (x86)\Intelitek\easyC V4 for Cortex\#Tools\STM32F103VD\easyCRuntime\easyCRuntimeLib.lib(Config.o)
                0x08006114                NVIC_Configuration
 .text.GPIO_Configuration
                0x08006248      0x334 C:\Program Files (x86)\Intelitek\easyC V4 for Cortex\#Tools\STM32F103VD\easyCRuntime\easyCRuntimeLib.lib(Config.o)
                0x08006248                GPIO_Configuration
 .text.DMA_Configuration
                0x0800657c       0x7c C:\Program Files (x86)\Intelitek\easyC V4 for Cortex\#Tools\STM32F103VD\easyCRuntime\easyCRuntimeLib.lib(Config.o)
                0x0800657c                DMA_Configuration
 .text.ADC_Configuration
                0x080065f8      0x170 C:\Program Files (x86)\Intelitek\easyC V4 for Cortex\#Tools\STM32F103VD\easyCRuntime\easyCRuntimeLib.lib(Config.o)
                0x080065f8                ADC_Configuration
 .text.EXTI_Configuration
                0x08006768        0xc C:\Program Files (x86)\Intelitek\easyC V4 for Cortex\#Tools\STM32F103VD\easyCRuntime\easyCRuntimeLib.lib(Config.o)
                0x08006768                EXTI_Configuration
 .text.USART_Configuration
                0x08006774      0x170 C:\Program Files (x86)\Intelitek\easyC V4 for Cortex\#Tools\STM32F103VD\easyCRuntime\easyCRuntimeLib.lib(Config.o)
                0x08006774                USART_Configuration
 .text.SysTick_Configuration
                0x080068e4       0x20 C:\Program Files (x86)\Intelitek\easyC V4 for Cortex\#Tools\STM32F103VD\easyCRuntime\easyCRuntimeLib.lib(Config.o)
                0x080068e4                SysTick_Configuration
 .text.Setup_timer4
                0x08006904       0xd4 C:\Program Files (x86)\Intelitek\easyC V4 for Cortex\#Tools\STM32F103VD\easyCRuntime\easyCRuntimeLib.lib(Config.o)
                0x08006904                Setup_timer4
 .text.TIM_Configuration
                0x080069d8      0x278 C:\Program Files (x86)\Intelitek\easyC V4 for Cortex\#Tools\STM32F103VD\easyCRuntime\easyCRuntimeLib.lib(Config.o)
                0x080069d8                TIM_Configuration
 .text.MCU_Configuration
                0x08006c50       0x44 C:\Program Files (x86)\Intelitek\easyC V4 for Cortex\#Tools\STM32F103VD\easyCRuntime\easyCRuntimeLib.lib(Config.o)
                0x08006c50                MCU_Configuration
 .text.CheckDigitalInputPort
                0x08006c94       0x44 C:\Program Files (x86)\Intelitek\easyC V4 for Cortex\#Tools\STM32F103VD\easyCRuntime\easyCRuntimeLib.lib(InputOutput.o)
                0x08006c94                CheckDigitalInputPort
 .text.CheckDigitalOutputPort
                0x08006cd8       0x44 C:\Program Files (x86)\Intelitek\easyC V4 for Cortex\#Tools\STM32F103VD\easyCRuntime\easyCRuntimeLib.lib(InputOutput.o)
                0x08006cd8                CheckDigitalOutputPort
 .text.CheckAnalogInputPort
                0x08006d1c       0x34 C:\Program Files (x86)\Intelitek\easyC V4 for Cortex\#Tools\STM32F103VD\easyCRuntime\easyCRuntimeLib.lib(InputOutput.o)
                0x08006d1c                CheckAnalogInputPort
 .text.ConfigDIOPort
                0x08006d50       0xa0 C:\Program Files (x86)\Intelitek\easyC V4 for Cortex\#Tools\STM32F103VD\easyCRuntime\easyCRuntimeLib.lib(InputOutput.o)
                0x08006d50                ConfigDIOPort
 .text.DefineControllerIO
                0x08006df0       0xfc C:\Program Files (x86)\Intelitek\easyC V4 for Cortex\#Tools\STM32F103VD\easyCRuntime\easyCRuntimeLib.lib(InputOutput.o)
                0x08006df0                DefineControllerIO
 .text.SetDigitalOutput
                0x08006eec       0x50 C:\Program Files (x86)\Intelitek\easyC V4 for Cortex\#Tools\STM32F103VD\easyCRuntime\easyCRuntimeLib.lib(InputOutput.o)
                0x08006eec                SetDigitalOutput
 .text.GetDigitalInput
                0x08006f3c       0x6c C:\Program Files (x86)\Intelitek\easyC V4 for Cortex\#Tools\STM32F103VD\easyCRuntime\easyCRuntimeLib.lib(InputOutput.o)
                0x08006f3c                GetDigitalInput
 .text.GetAnalogInput
                0x08006fa8       0x48 C:\Program Files (x86)\Intelitek\easyC V4 for Cortex\#Tools\STM32F103VD\easyCRuntime\easyCRuntimeLib.lib(InputOutput.o)
                0x08006fa8                GetAnalogInput
 .text.BlinkOutput
                0x08006ff0       0xac C:\Program Files (x86)\Intelitek\easyC V4 for Cortex\#Tools\STM32F103VD\easyCRuntime\easyCRuntimeLib.lib(InputOutput.o)
                0x08006ff0                BlinkOutput
 .text.GetDigitalOutput
                0x0800709c       0x60 C:\Program Files (x86)\Intelitek\easyC V4 for Cortex\#Tools\STM32F103VD\easyCRuntime\easyCRuntimeLib.lib(InputOutput.o)
                0x0800709c                GetDigitalOutput
 .text.CheckIntPort
                0x080070fc       0x48 C:\Program Files (x86)\Intelitek\easyC V4 for Cortex\#Tools\STM32F103VD\easyCRuntime\easyCRuntimeLib.lib(Interrupts.o)
                0x080070fc                CheckIntPort
 .text.UnRegisterInterruptHandler
                0x08007144       0x7c C:\Program Files (x86)\Intelitek\easyC V4 for Cortex\#Tools\STM32F103VD\easyCRuntime\easyCRuntimeLib.lib(Interrupts.o)
                0x08007144                UnRegisterInterruptHandler
 .text.UnRegisterAllInterruptHandler
                0x080071c0       0x44 C:\Program Files (x86)\Intelitek\easyC V4 for Cortex\#Tools\STM32F103VD\easyCRuntime\easyCRuntimeLib.lib(Interrupts.o)
                0x080071c0                UnRegisterAllInterruptHandler
 .text.InitializeInterrupts
                0x08007204      0x13c C:\Program Files (x86)\Intelitek\easyC V4 for Cortex\#Tools\STM32F103VD\easyCRuntime\easyCRuntimeLib.lib(Interrupts.o)
                0x08007204                InitializeInterrupts
 .text.EXTI0_IRQHandler
                0x08007340       0x60 C:\Program Files (x86)\Intelitek\easyC V4 for Cortex\#Tools\STM32F103VD\easyCRuntime\easyCRuntimeLib.lib(Interrupts.o)
                0x08007340                EXTI0_IRQHandler
 .text.EXTI1_IRQHandler
                0x080073a0       0x60 C:\Program Files (x86)\Intelitek\easyC V4 for Cortex\#Tools\STM32F103VD\easyCRuntime\easyCRuntimeLib.lib(Interrupts.o)
                0x080073a0                EXTI1_IRQHandler
 .text.EXTI2_IRQHandler
                0x08007400        0xc C:\Program Files (x86)\Intelitek\easyC V4 for Cortex\#Tools\STM32F103VD\easyCRuntime\easyCRuntimeLib.lib(Interrupts.o)
                0x08007400                EXTI2_IRQHandler
 .text.EXTI3_IRQHandler
                0x0800740c        0xc C:\Program Files (x86)\Intelitek\easyC V4 for Cortex\#Tools\STM32F103VD\easyCRuntime\easyCRuntimeLib.lib(Interrupts.o)
                0x0800740c                EXTI3_IRQHandler
 .text.EXTI4_IRQHandler
                0x08007418        0xc C:\Program Files (x86)\Intelitek\easyC V4 for Cortex\#Tools\STM32F103VD\easyCRuntime\easyCRuntimeLib.lib(Interrupts.o)
                0x08007418                EXTI4_IRQHandler
 .text.EXTI9_5_IRQHandler
                0x08007424      0x150 C:\Program Files (x86)\Intelitek\easyC V4 for Cortex\#Tools\STM32F103VD\easyCRuntime\easyCRuntimeLib.lib(Interrupts.o)
                0x08007424                EXTI9_5_IRQHandler
 .text.EXTI15_10_IRQHandler
                0x08007574      0x1a0 C:\Program Files (x86)\Intelitek\easyC V4 for Cortex\#Tools\STM32F103VD\easyCRuntime\easyCRuntimeLib.lib(Interrupts.o)
                0x08007574                EXTI15_10_IRQHandler
 .text.Delay    0x08007714       0x30 C:\Program Files (x86)\Intelitek\easyC V4 for Cortex\#Tools\STM32F103VD\easyCRuntime\easyCRuntimeLib.lib(Motors.o)
                0x08007714                Delay
 .text.SetPWM   0x08007744      0x114 C:\Program Files (x86)\Intelitek\easyC V4 for Cortex\#Tools\STM32F103VD\easyCRuntime\easyCRuntimeLib.lib(Motors.o)
                0x08007744                SetPWM
 .text.SetMotorReal
                0x08007858      0x160 C:\Program Files (x86)\Intelitek\easyC V4 for Cortex\#Tools\STM32F103VD\easyCRuntime\easyCRuntimeLib.lib(Motors.o)
                0x08007858                SetMotorReal
 .text.SetMotor
                0x080079b8       0x44 C:\Program Files (x86)\Intelitek\easyC V4 for Cortex\#Tools\STM32F103VD\easyCRuntime\easyCRuntimeLib.lib(Motors.o)
                0x080079b8                SetMotor
 .text.Set_MotorControl_To_Neutral
                0x080079fc       0x88 C:\Program Files (x86)\Intelitek\easyC V4 for Cortex\#Tools\STM32F103VD\easyCRuntime\easyCRuntimeLib.lib(Motors.o)
                0x080079fc                Set_MotorControl_To_Neutral
 .text.Set_MotorControl_Sw1
                0x08007a84       0xf8 C:\Program Files (x86)\Intelitek\easyC V4 for Cortex\#Tools\STM32F103VD\easyCRuntime\easyCRuntimeLib.lib(Motors.o)
                0x08007a84                Set_MotorControl_Sw1
 .text.Set_MotorControl_Sw2
                0x08007b7c       0xfc C:\Program Files (x86)\Intelitek\easyC V4 for Cortex\#Tools\STM32F103VD\easyCRuntime\easyCRuntimeLib.lib(Motors.o)
                0x08007b7c                Set_MotorControl_Sw2
 .text.Holonomic
                0x08007c78      0x1a4 C:\Program Files (x86)\Intelitek\easyC V4 for Cortex\#Tools\STM32F103VD\easyCRuntime\easyCRuntimeLib.lib(Motors.o)
                0x08007c78                Holonomic
 .text.AdjustPort
                0x08007e1c       0x24 C:\Program Files (x86)\Intelitek\easyC V4 for Cortex\#Tools\STM32F103VD\easyCRuntime\easyCRuntimeLib.lib(OI.o)
 .text.AdjustJoystickAnalog
                0x08007e40       0x3c C:\Program Files (x86)\Intelitek\easyC V4 for Cortex\#Tools\STM32F103VD\easyCRuntime\easyCRuntimeLib.lib(OI.o)
                0x08007e40                AdjustJoystickAnalog
 .text.GetJoystickAnalogReal
                0x08007e7c      0x150 C:\Program Files (x86)\Intelitek\easyC V4 for Cortex\#Tools\STM32F103VD\easyCRuntime\easyCRuntimeLib.lib(OI.o)
                0x08007e7c                GetJoystickAnalogReal
 .text.GetJoystickAnalog
                0x08007fcc       0x34 C:\Program Files (x86)\Intelitek\easyC V4 for Cortex\#Tools\STM32F103VD\easyCRuntime\easyCRuntimeLib.lib(OI.o)
                0x08007fcc                GetJoystickAnalog
 .text.GetJoystickDigital
                0x08008000      0x2c0 C:\Program Files (x86)\Intelitek\easyC V4 for Cortex\#Tools\STM32F103VD\easyCRuntime\easyCRuntimeLib.lib(OI.o)
                0x08008000                GetJoystickDigital
 .text.JoystickToMotor
                0x080082c0       0x4c C:\Program Files (x86)\Intelitek\easyC V4 for Cortex\#Tools\STM32F103VD\easyCRuntime\easyCRuntimeLib.lib(OI.o)
                0x080082c0                JoystickToMotor
 .text.JoystickDigitalToMotor
                0x0800830c       0x68 C:\Program Files (x86)\Intelitek\easyC V4 for Cortex\#Tools\STM32F103VD\easyCRuntime\easyCRuntimeLib.lib(OI.o)
                0x0800830c                JoystickDigitalToMotor
 .text.PrintToScreen
                0x08008374       0x34 C:\Program Files (x86)\Intelitek\easyC V4 for Cortex\#Tools\STM32F103VD\easyCRuntime\easyCRuntimeLib.lib(Print.o)
                0x08008374                PrintToScreen
 .text.PrintError
                0x080083a8       0x3c C:\Program Files (x86)\Intelitek\easyC V4 for Cortex\#Tools\STM32F103VD\easyCRuntime\easyCRuntimeLib.lib(Print.o)
                0x080083a8                PrintError
 .text.NMIException
                0x080083e4        0xc C:\Program Files (x86)\Intelitek\easyC V4 for Cortex\#Tools\STM32F103VD\easyCRuntime\easyCRuntimeLib.lib(stm32f10x_it.o)
                0x080083e4                NMIException
 .text.HardFaultException
                0x080083f0        0x8 C:\Program Files (x86)\Intelitek\easyC V4 for Cortex\#Tools\STM32F103VD\easyCRuntime\easyCRuntimeLib.lib(stm32f10x_it.o)
                0x080083f0                HardFaultException
 .text.MemManageException
                0x080083f8        0x8 C:\Program Files (x86)\Intelitek\easyC V4 for Cortex\#Tools\STM32F103VD\easyCRuntime\easyCRuntimeLib.lib(stm32f10x_it.o)
                0x080083f8                MemManageException
 .text.BusFaultException
                0x08008400        0x8 C:\Program Files (x86)\Intelitek\easyC V4 for Cortex\#Tools\STM32F103VD\easyCRuntime\easyCRuntimeLib.lib(stm32f10x_it.o)
                0x08008400                BusFaultException
 .text.UsageFaultException
                0x08008408        0x8 C:\Program Files (x86)\Intelitek\easyC V4 for Cortex\#Tools\STM32F103VD\easyCRuntime\easyCRuntimeLib.lib(stm32f10x_it.o)
                0x08008408                UsageFaultException
 .text.DebugMonitor
                0x08008410        0xc C:\Program Files (x86)\Intelitek\easyC V4 for Cortex\#Tools\STM32F103VD\easyCRuntime\easyCRuntimeLib.lib(stm32f10x_it.o)
                0x08008410                DebugMonitor
 .text.SVCHandler
                0x0800841c        0xc C:\Program Files (x86)\Intelitek\easyC V4 for Cortex\#Tools\STM32F103VD\easyCRuntime\easyCRuntimeLib.lib(stm32f10x_it.o)
                0x0800841c                SVCHandler
 .text.PendSVC  0x08008428        0xc C:\Program Files (x86)\Intelitek\easyC V4 for Cortex\#Tools\STM32F103VD\easyCRuntime\easyCRuntimeLib.lib(stm32f10x_it.o)
                0x08008428                PendSVC
 .text.WWDG_IRQHandler
                0x08008434        0xc C:\Program Files (x86)\Intelitek\easyC V4 for Cortex\#Tools\STM32F103VD\easyCRuntime\easyCRuntimeLib.lib(stm32f10x_it.o)
                0x08008434                WWDG_IRQHandler
 .text.PVD_IRQHandler
                0x08008440        0xc C:\Program Files (x86)\Intelitek\easyC V4 for Cortex\#Tools\STM32F103VD\easyCRuntime\easyCRuntimeLib.lib(stm32f10x_it.o)
                0x08008440                PVD_IRQHandler
 .text.TAMPER_IRQHandler
                0x0800844c        0xc C:\Program Files (x86)\Intelitek\easyC V4 for Cortex\#Tools\STM32F103VD\easyCRuntime\easyCRuntimeLib.lib(stm32f10x_it.o)
                0x0800844c                TAMPER_IRQHandler
 .text.RTC_IRQHandler
                0x08008458        0xc C:\Program Files (x86)\Intelitek\easyC V4 for Cortex\#Tools\STM32F103VD\easyCRuntime\easyCRuntimeLib.lib(stm32f10x_it.o)
                0x08008458                RTC_IRQHandler
 .text.FLASH_IRQHandler
                0x08008464        0xc C:\Program Files (x86)\Intelitek\easyC V4 for Cortex\#Tools\STM32F103VD\easyCRuntime\easyCRuntimeLib.lib(stm32f10x_it.o)
                0x08008464                FLASH_IRQHandler
 .text.RCC_IRQHandler
                0x08008470        0xc C:\Program Files (x86)\Intelitek\easyC V4 for Cortex\#Tools\STM32F103VD\easyCRuntime\easyCRuntimeLib.lib(stm32f10x_it.o)
                0x08008470                RCC_IRQHandler
 .text.DMA1_Channel1_IRQHandler
                0x0800847c        0xc C:\Program Files (x86)\Intelitek\easyC V4 for Cortex\#Tools\STM32F103VD\easyCRuntime\easyCRuntimeLib.lib(stm32f10x_it.o)
                0x0800847c                DMA1_Channel1_IRQHandler
 .text.DMA1_Channel2_IRQHandler
                0x08008488        0xc C:\Program Files (x86)\Intelitek\easyC V4 for Cortex\#Tools\STM32F103VD\easyCRuntime\easyCRuntimeLib.lib(stm32f10x_it.o)
                0x08008488                DMA1_Channel2_IRQHandler
 .text.DMA1_Channel3_IRQHandler
                0x08008494        0xc C:\Program Files (x86)\Intelitek\easyC V4 for Cortex\#Tools\STM32F103VD\easyCRuntime\easyCRuntimeLib.lib(stm32f10x_it.o)
                0x08008494                DMA1_Channel3_IRQHandler
 .text.DMA1_Channel4_IRQHandler
                0x080084a0        0xc C:\Program Files (x86)\Intelitek\easyC V4 for Cortex\#Tools\STM32F103VD\easyCRuntime\easyCRuntimeLib.lib(stm32f10x_it.o)
                0x080084a0                DMA1_Channel4_IRQHandler
 .text.DMA1_Channel5_IRQHandler
                0x080084ac        0xc C:\Program Files (x86)\Intelitek\easyC V4 for Cortex\#Tools\STM32F103VD\easyCRuntime\easyCRuntimeLib.lib(stm32f10x_it.o)
                0x080084ac                DMA1_Channel5_IRQHandler
 .text.DMA1_Channel6_IRQHandler
                0x080084b8        0xc C:\Program Files (x86)\Intelitek\easyC V4 for Cortex\#Tools\STM32F103VD\easyCRuntime\easyCRuntimeLib.lib(stm32f10x_it.o)
                0x080084b8                DMA1_Channel6_IRQHandler
 .text.DMA1_Channel7_IRQHandler
                0x080084c4        0xc C:\Program Files (x86)\Intelitek\easyC V4 for Cortex\#Tools\STM32F103VD\easyCRuntime\easyCRuntimeLib.lib(stm32f10x_it.o)
                0x080084c4                DMA1_Channel7_IRQHandler
 .text.ADC1_2_IRQHandler
                0x080084d0        0xc C:\Program Files (x86)\Intelitek\easyC V4 for Cortex\#Tools\STM32F103VD\easyCRuntime\easyCRuntimeLib.lib(stm32f10x_it.o)
                0x080084d0                ADC1_2_IRQHandler
 .text.USB_HP_CAN_TX_IRQHandler
                0x080084dc        0xc C:\Program Files (x86)\Intelitek\easyC V4 for Cortex\#Tools\STM32F103VD\easyCRuntime\easyCRuntimeLib.lib(stm32f10x_it.o)
                0x080084dc                USB_HP_CAN_TX_IRQHandler
 .text.USB_LP_CAN_RX0_IRQHandler
                0x080084e8        0xc C:\Program Files (x86)\Intelitek\easyC V4 for Cortex\#Tools\STM32F103VD\easyCRuntime\easyCRuntimeLib.lib(stm32f10x_it.o)
                0x080084e8                USB_LP_CAN_RX0_IRQHandler
 .text.CAN_RX1_IRQHandler
                0x080084f4        0xc C:\Program Files (x86)\Intelitek\easyC V4 for Cortex\#Tools\STM32F103VD\easyCRuntime\easyCRuntimeLib.lib(stm32f10x_it.o)
                0x080084f4                CAN_RX1_IRQHandler
 .text.CAN_SCE_IRQHandler
                0x08008500        0xc C:\Program Files (x86)\Intelitek\easyC V4 for Cortex\#Tools\STM32F103VD\easyCRuntime\easyCRuntimeLib.lib(stm32f10x_it.o)
                0x08008500                CAN_SCE_IRQHandler
 .text.TIM1_BRK_IRQHandler
                0x0800850c        0xc C:\Program Files (x86)\Intelitek\easyC V4 for Cortex\#Tools\STM32F103VD\easyCRuntime\easyCRuntimeLib.lib(stm32f10x_it.o)
                0x0800850c                TIM1_BRK_IRQHandler
 .text.TIM1_UP_IRQHandler
                0x08008518        0xc C:\Program Files (x86)\Intelitek\easyC V4 for Cortex\#Tools\STM32F103VD\easyCRuntime\easyCRuntimeLib.lib(stm32f10x_it.o)
                0x08008518                TIM1_UP_IRQHandler
 .text.TIM1_TRG_COM_IRQHandler
                0x08008524        0xc C:\Program Files (x86)\Intelitek\easyC V4 for Cortex\#Tools\STM32F103VD\easyCRuntime\easyCRuntimeLib.lib(stm32f10x_it.o)
                0x08008524                TIM1_TRG_COM_IRQHandler
 .text.TIM1_CC_IRQHandler
                0x08008530       0x78 C:\Program Files (x86)\Intelitek\easyC V4 for Cortex\#Tools\STM32F103VD\easyCRuntime\easyCRuntimeLib.lib(stm32f10x_it.o)
                0x08008530                TIM1_CC_IRQHandler
 .text.TIM4_IRQHandler
                0x080085a8       0x30 C:\Program Files (x86)\Intelitek\easyC V4 for Cortex\#Tools\STM32F103VD\easyCRuntime\easyCRuntimeLib.lib(stm32f10x_it.o)
                0x080085a8                TIM4_IRQHandler
 .text.I2C1_EV_IRQHandler
                0x080085d8        0xc C:\Program Files (x86)\Intelitek\easyC V4 for Cortex\#Tools\STM32F103VD\easyCRuntime\easyCRuntimeLib.lib(stm32f10x_it.o)
                0x080085d8                I2C1_EV_IRQHandler
 .text.I2C1_ER_IRQHandler
                0x080085e4        0xc C:\Program Files (x86)\Intelitek\easyC V4 for Cortex\#Tools\STM32F103VD\easyCRuntime\easyCRuntimeLib.lib(stm32f10x_it.o)
                0x080085e4                I2C1_ER_IRQHandler
 .text.I2C2_EV_IRQHandler
                0x080085f0        0xc C:\Program Files (x86)\Intelitek\easyC V4 for Cortex\#Tools\STM32F103VD\easyCRuntime\easyCRuntimeLib.lib(stm32f10x_it.o)
                0x080085f0                I2C2_EV_IRQHandler
 .text.I2C2_ER_IRQHandler
                0x080085fc        0xc C:\Program Files (x86)\Intelitek\easyC V4 for Cortex\#Tools\STM32F103VD\easyCRuntime\easyCRuntimeLib.lib(stm32f10x_it.o)
                0x080085fc                I2C2_ER_IRQHandler
 .text.SPI1_IRQHandler
                0x08008608        0xc C:\Program Files (x86)\Intelitek\easyC V4 for Cortex\#Tools\STM32F103VD\easyCRuntime\easyCRuntimeLib.lib(stm32f10x_it.o)
                0x08008608                SPI1_IRQHandler
 .text.SPI2_IRQHandler
                0x08008614        0xc C:\Program Files (x86)\Intelitek\easyC V4 for Cortex\#Tools\STM32F103VD\easyCRuntime\easyCRuntimeLib.lib(stm32f10x_it.o)
                0x08008614                SPI2_IRQHandler
 .text.RTCAlarm_IRQHandler
                0x08008620        0xc C:\Program Files (x86)\Intelitek\easyC V4 for Cortex\#Tools\STM32F103VD\easyCRuntime\easyCRuntimeLib.lib(stm32f10x_it.o)
                0x08008620                RTCAlarm_IRQHandler
 .text.USBWakeUp_IRQHandler
                0x0800862c        0xc C:\Program Files (x86)\Intelitek\easyC V4 for Cortex\#Tools\STM32F103VD\easyCRuntime\easyCRuntimeLib.lib(stm32f10x_it.o)
                0x0800862c                USBWakeUp_IRQHandler
 .text.TIM8_BRK_IRQHandler
                0x08008638        0xc C:\Program Files (x86)\Intelitek\easyC V4 for Cortex\#Tools\STM32F103VD\easyCRuntime\easyCRuntimeLib.lib(stm32f10x_it.o)
                0x08008638                TIM8_BRK_IRQHandler
 .text.TIM8_UP_IRQHandler
                0x08008644        0xc C:\Program Files (x86)\Intelitek\easyC V4 for Cortex\#Tools\STM32F103VD\easyCRuntime\easyCRuntimeLib.lib(stm32f10x_it.o)
                0x08008644                TIM8_UP_IRQHandler
 .text.TIM8_TRG_COM_IRQHandler
                0x08008650        0xc C:\Program Files (x86)\Intelitek\easyC V4 for Cortex\#Tools\STM32F103VD\easyCRuntime\easyCRuntimeLib.lib(stm32f10x_it.o)
                0x08008650                TIM8_TRG_COM_IRQHandler
 .text.TIM8_CC_IRQHandler
                0x0800865c        0xc C:\Program Files (x86)\Intelitek\easyC V4 for Cortex\#Tools\STM32F103VD\easyCRuntime\easyCRuntimeLib.lib(stm32f10x_it.o)
                0x0800865c                TIM8_CC_IRQHandler
 .text.ADC3_IRQHandler
                0x08008668        0xc C:\Program Files (x86)\Intelitek\easyC V4 for Cortex\#Tools\STM32F103VD\easyCRuntime\easyCRuntimeLib.lib(stm32f10x_it.o)
                0x08008668                ADC3_IRQHandler
 .text.FSMC_IRQHandler
                0x08008674        0xc C:\Program Files (x86)\Intelitek\easyC V4 for Cortex\#Tools\STM32F103VD\easyCRuntime\easyCRuntimeLib.lib(stm32f10x_it.o)
                0x08008674                FSMC_IRQHandler
 .text.SDIO_IRQHandler
                0x08008680        0xc C:\Program Files (x86)\Intelitek\easyC V4 for Cortex\#Tools\STM32F103VD\easyCRuntime\easyCRuntimeLib.lib(stm32f10x_it.o)
                0x08008680                SDIO_IRQHandler
 .text.TIM5_IRQHandler
                0x0800868c        0xc C:\Program Files (x86)\Intelitek\easyC V4 for Cortex\#Tools\STM32F103VD\easyCRuntime\easyCRuntimeLib.lib(stm32f10x_it.o)
                0x0800868c                TIM5_IRQHandler
 .text.SPI3_IRQHandler
                0x08008698        0xc C:\Program Files (x86)\Intelitek\easyC V4 for Cortex\#Tools\STM32F103VD\easyCRuntime\easyCRuntimeLib.lib(stm32f10x_it.o)
                0x08008698                SPI3_IRQHandler
 .text.UART4_IRQHandler
                0x080086a4        0xc C:\Program Files (x86)\Intelitek\easyC V4 for Cortex\#Tools\STM32F103VD\easyCRuntime\easyCRuntimeLib.lib(stm32f10x_it.o)
                0x080086a4                UART4_IRQHandler
 .text.UART5_IRQHandler
                0x080086b0        0xc C:\Program Files (x86)\Intelitek\easyC V4 for Cortex\#Tools\STM32F103VD\easyCRuntime\easyCRuntimeLib.lib(stm32f10x_it.o)
                0x080086b0                UART5_IRQHandler
 .text.TIM6_IRQHandler
                0x080086bc        0xc C:\Program Files (x86)\Intelitek\easyC V4 for Cortex\#Tools\STM32F103VD\easyCRuntime\easyCRuntimeLib.lib(stm32f10x_it.o)
                0x080086bc                TIM6_IRQHandler
 .text.TIM7_IRQHandler
                0x080086c8        0xc C:\Program Files (x86)\Intelitek\easyC V4 for Cortex\#Tools\STM32F103VD\easyCRuntime\easyCRuntimeLib.lib(stm32f10x_it.o)
                0x080086c8                TIM7_IRQHandler
 .text.DMA2_Channel1_IRQHandler
                0x080086d4        0xc C:\Program Files (x86)\Intelitek\easyC V4 for Cortex\#Tools\STM32F103VD\easyCRuntime\easyCRuntimeLib.lib(stm32f10x_it.o)
                0x080086d4                DMA2_Channel1_IRQHandler
 .text.DMA2_Channel2_IRQHandler
                0x080086e0        0xc C:\Program Files (x86)\Intelitek\easyC V4 for Cortex\#Tools\STM32F103VD\easyCRuntime\easyCRuntimeLib.lib(stm32f10x_it.o)
                0x080086e0                DMA2_Channel2_IRQHandler
 .text.DMA2_Channel3_IRQHandler
                0x080086ec        0xc C:\Program Files (x86)\Intelitek\easyC V4 for Cortex\#Tools\STM32F103VD\easyCRuntime\easyCRuntimeLib.lib(stm32f10x_it.o)
                0x080086ec                DMA2_Channel3_IRQHandler
 .text.DMA2_Channel4_5_IRQHandler
                0x080086f8        0xc C:\Program Files (x86)\Intelitek\easyC V4 for Cortex\#Tools\STM32F103VD\easyCRuntime\easyCRuntimeLib.lib(stm32f10x_it.o)
                0x080086f8                DMA2_Channel4_5_IRQHandler
 .text.GetKey   0x08008704       0x5c C:\Program Files (x86)\Intelitek\easyC V4 for Cortex\#Tools\STM32F103VD\easyCRuntime\easyCRuntimeLib.lib(ddt_support.o)
                0x08008704                GetKey
 .text.SendCharUart1
                0x08008760       0xa8 C:\Program Files (x86)\Intelitek\easyC V4 for Cortex\#Tools\STM32F103VD\easyCRuntime\easyCRuntimeLib.lib(ddt_support.o)
                0x08008760                SendCharUart1
 .text.Handle_Debug_Input_Ext
                0x08008808      0x330 C:\Program Files (x86)\Intelitek\easyC V4 for Cortex\#Tools\STM32F103VD\easyCRuntime\easyCRuntimeLib.lib(ddt_support.o)
                0x08008808                Handle_Debug_Input_Ext
 .text.Process_Debug_Stream_Ext
                0x08008b38      0x47c C:\Program Files (x86)\Intelitek\easyC V4 for Cortex\#Tools\STM32F103VD\easyCRuntime\easyCRuntimeLib.lib(ddt_support.o)
                0x08008b38                Process_Debug_Stream_Ext
 .text.USART2_IRQHandler
                0x08008fb4      0x15c C:\Program Files (x86)\Intelitek\easyC V4 for Cortex\#Tools\STM32F103VD\easyCRuntime\easyCRuntimeLib.lib(SerialPorts.o)
                0x08008fb4                USART2_IRQHandler
 .text.USART3_IRQHandler
                0x08009110      0x160 C:\Program Files (x86)\Intelitek\easyC V4 for Cortex\#Tools\STM32F103VD\easyCRuntime\easyCRuntimeLib.lib(SerialPorts.o)
                0x08009110                USART3_IRQHandler
 .text.Process_Data_From_Local_IO
                0x08009270       0x90 C:\Program Files (x86)\Intelitek\easyC V4 for Cortex\#Tools\STM32F103VD\easyCRuntime\easyCRuntimeLib.lib(SerialPorts.o)
                0x08009270                Process_Data_From_Local_IO
 .text.ADC_DeInit
                0x08009300       0x90 C:\Program Files (x86)\Intelitek\easyC V4 for Cortex\#Tools\STM32F103VD\easyCRuntime\easyCRuntimeLib.lib(stm32f10x_adc.o)
                0x08009300                ADC_DeInit
 .text.ADC_Init
                0x08009390       0xc8 C:\Program Files (x86)\Intelitek\easyC V4 for Cortex\#Tools\STM32F103VD\easyCRuntime\easyCRuntimeLib.lib(stm32f10x_adc.o)
                0x08009390                ADC_Init
 .text.ADC_Cmd  0x08009458       0x38 C:\Program Files (x86)\Intelitek\easyC V4 for Cortex\#Tools\STM32F103VD\easyCRuntime\easyCRuntimeLib.lib(stm32f10x_adc.o)
                0x08009458                ADC_Cmd
 .text.ADC_DMACmd
                0x08009490       0x38 C:\Program Files (x86)\Intelitek\easyC V4 for Cortex\#Tools\STM32F103VD\easyCRuntime\easyCRuntimeLib.lib(stm32f10x_adc.o)
                0x08009490                ADC_DMACmd
 .text.ADC_ResetCalibration
                0x080094c8       0x20 C:\Program Files (x86)\Intelitek\easyC V4 for Cortex\#Tools\STM32F103VD\easyCRuntime\easyCRuntimeLib.lib(stm32f10x_adc.o)
                0x080094c8                ADC_ResetCalibration
 .text.ADC_GetResetCalibrationStatus
                0x080094e8       0x38 C:\Program Files (x86)\Intelitek\easyC V4 for Cortex\#Tools\STM32F103VD\easyCRuntime\easyCRuntimeLib.lib(stm32f10x_adc.o)
                0x080094e8                ADC_GetResetCalibrationStatus
 .text.ADC_StartCalibration
                0x08009520       0x20 C:\Program Files (x86)\Intelitek\easyC V4 for Cortex\#Tools\STM32F103VD\easyCRuntime\easyCRuntimeLib.lib(stm32f10x_adc.o)
                0x08009520                ADC_StartCalibration
 .text.ADC_GetCalibrationStatus
                0x08009540       0x38 C:\Program Files (x86)\Intelitek\easyC V4 for Cortex\#Tools\STM32F103VD\easyCRuntime\easyCRuntimeLib.lib(stm32f10x_adc.o)
                0x08009540                ADC_GetCalibrationStatus
 .text.ADC_SoftwareStartConvCmd
                0x08009578       0x38 C:\Program Files (x86)\Intelitek\easyC V4 for Cortex\#Tools\STM32F103VD\easyCRuntime\easyCRuntimeLib.lib(stm32f10x_adc.o)
                0x08009578                ADC_SoftwareStartConvCmd
 .text.ADC_RegularChannelConfig
                0x080095b0      0x1d8 C:\Program Files (x86)\Intelitek\easyC V4 for Cortex\#Tools\STM32F103VD\easyCRuntime\easyCRuntimeLib.lib(stm32f10x_adc.o)
                0x080095b0                ADC_RegularChannelConfig
 .text.DMA_DeInit
                0x08009788      0x260 C:\Program Files (x86)\Intelitek\easyC V4 for Cortex\#Tools\STM32F103VD\easyCRuntime\easyCRuntimeLib.lib(stm32f10x_dma.o)
                0x08009788                DMA_DeInit
 .text.DMA_Init
                0x080099e8       0x90 C:\Program Files (x86)\Intelitek\easyC V4 for Cortex\#Tools\STM32F103VD\easyCRuntime\easyCRuntimeLib.lib(stm32f10x_dma.o)
                0x080099e8                DMA_Init
 .text.DMA_Cmd  0x08009a78       0x38 C:\Program Files (x86)\Intelitek\easyC V4 for Cortex\#Tools\STM32F103VD\easyCRuntime\easyCRuntimeLib.lib(stm32f10x_dma.o)
                0x08009a78                DMA_Cmd
 .text.EXTI_GetITStatus
                0x08009ab0       0x5c C:\Program Files (x86)\Intelitek\easyC V4 for Cortex\#Tools\STM32F103VD\easyCRuntime\easyCRuntimeLib.lib(stm32f10x_exti.o)
                0x08009ab0                EXTI_GetITStatus
 .text.EXTI_ClearITPendingBit
                0x08009b0c       0x20 C:\Program Files (x86)\Intelitek\easyC V4 for Cortex\#Tools\STM32F103VD\easyCRuntime\easyCRuntimeLib.lib(stm32f10x_exti.o)
                0x08009b0c                EXTI_ClearITPendingBit
 .text.FLASH_SetLatency
                0x08009b2c       0x44 C:\Program Files (x86)\Intelitek\easyC V4 for Cortex\#Tools\STM32F103VD\easyCRuntime\easyCRuntimeLib.lib(stm32f10x_flash.o)
                0x08009b2c                FLASH_SetLatency
 .text.FLASH_PrefetchBufferCmd
                0x08009b70       0x44 C:\Program Files (x86)\Intelitek\easyC V4 for Cortex\#Tools\STM32F103VD\easyCRuntime\easyCRuntimeLib.lib(stm32f10x_flash.o)
                0x08009b70                FLASH_PrefetchBufferCmd
 .text.FLASH_Unlock
                0x08009bb4       0x30 C:\Program Files (x86)\Intelitek\easyC V4 for Cortex\#Tools\STM32F103VD\easyCRuntime\easyCRuntimeLib.lib(stm32f10x_flash.o)
                0x08009bb4                FLASH_Unlock
 .text.FLASH_Lock
                0x08009be4       0x24 C:\Program Files (x86)\Intelitek\easyC V4 for Cortex\#Tools\STM32F103VD\easyCRuntime\easyCRuntimeLib.lib(stm32f10x_flash.o)
                0x08009be4                FLASH_Lock
 .text.FLASH_ErasePage
                0x08009c08       0x9c C:\Program Files (x86)\Intelitek\easyC V4 for Cortex\#Tools\STM32F103VD\easyCRuntime\easyCRuntimeLib.lib(stm32f10x_flash.o)
                0x08009c08                FLASH_ErasePage
 .text.FLASH_ProgramWord
                0x08009ca4       0xcc C:\Program Files (x86)\Intelitek\easyC V4 for Cortex\#Tools\STM32F103VD\easyCRuntime\easyCRuntimeLib.lib(stm32f10x_flash.o)
                0x08009ca4                FLASH_ProgramWord
 .text.FLASH_ClearFlag
                0x08009d70       0x20 C:\Program Files (x86)\Intelitek\easyC V4 for Cortex\#Tools\STM32F103VD\easyCRuntime\easyCRuntimeLib.lib(stm32f10x_flash.o)
                0x08009d70                FLASH_ClearFlag
 .text.FLASH_GetStatus
                0x08009d90       0x70 C:\Program Files (x86)\Intelitek\easyC V4 for Cortex\#Tools\STM32F103VD\easyCRuntime\easyCRuntimeLib.lib(stm32f10x_flash.o)
                0x08009d90                FLASH_GetStatus
 .text.FLASH_WaitForLastOperation
                0x08009e00       0x50 C:\Program Files (x86)\Intelitek\easyC V4 for Cortex\#Tools\STM32F103VD\easyCRuntime\easyCRuntimeLib.lib(stm32f10x_flash.o)
                0x08009e00                FLASH_WaitForLastOperation
 .text.delay    0x08009e50       0x2c C:\Program Files (x86)\Intelitek\easyC V4 for Cortex\#Tools\STM32F103VD\easyCRuntime\easyCRuntimeLib.lib(stm32f10x_flash.o)
 .text.GPIO_Init
                0x08009e7c      0x1c8 C:\Program Files (x86)\Intelitek\easyC V4 for Cortex\#Tools\STM32F103VD\easyCRuntime\easyCRuntimeLib.lib(stm32f10x_gpio.o)
                0x08009e7c                GPIO_Init
 .text.GPIO_ReadInputDataBit
                0x0800a044       0x3c C:\Program Files (x86)\Intelitek\easyC V4 for Cortex\#Tools\STM32F103VD\easyCRuntime\easyCRuntimeLib.lib(stm32f10x_gpio.o)
                0x0800a044                GPIO_ReadInputDataBit
 .text.GPIO_ReadOutputDataBit
                0x0800a080       0x3c C:\Program Files (x86)\Intelitek\easyC V4 for Cortex\#Tools\STM32F103VD\easyCRuntime\easyCRuntimeLib.lib(stm32f10x_gpio.o)
                0x0800a080                GPIO_ReadOutputDataBit
 .text.GPIO_SetBits
                0x0800a0bc       0x1c C:\Program Files (x86)\Intelitek\easyC V4 for Cortex\#Tools\STM32F103VD\easyCRuntime\easyCRuntimeLib.lib(stm32f10x_gpio.o)
                0x0800a0bc                GPIO_SetBits
 .text.GPIO_ResetBits
                0x0800a0d8       0x1c C:\Program Files (x86)\Intelitek\easyC V4 for Cortex\#Tools\STM32F103VD\easyCRuntime\easyCRuntimeLib.lib(stm32f10x_gpio.o)
                0x0800a0d8                GPIO_ResetBits
 .text.GPIO_WriteBit
                0x0800a0f4       0x30 C:\Program Files (x86)\Intelitek\easyC V4 for Cortex\#Tools\STM32F103VD\easyCRuntime\easyCRuntimeLib.lib(stm32f10x_gpio.o)
                0x0800a0f4                GPIO_WriteBit
 .text.GPIO_PinRemapConfig
                0x0800a124      0x100 C:\Program Files (x86)\Intelitek\easyC V4 for Cortex\#Tools\STM32F103VD\easyCRuntime\easyCRuntimeLib.lib(stm32f10x_gpio.o)
                0x0800a124                GPIO_PinRemapConfig
 .text.NVIC_PriorityGroupConfig
                0x0800a224       0x28 C:\Program Files (x86)\Intelitek\easyC V4 for Cortex\#Tools\STM32F103VD\easyCRuntime\easyCRuntimeLib.lib(stm32f10x_nvic.o)
                0x0800a224                NVIC_PriorityGroupConfig
 .text.NVIC_Init
                0x0800a24c      0x168 C:\Program Files (x86)\Intelitek\easyC V4 for Cortex\#Tools\STM32F103VD\easyCRuntime\easyCRuntimeLib.lib(stm32f10x_nvic.o)
                0x0800a24c                NVIC_Init
 .text.NVIC_SetVectorTable
                0x0800a3b4       0x30 C:\Program Files (x86)\Intelitek\easyC V4 for Cortex\#Tools\STM32F103VD\easyCRuntime\easyCRuntimeLib.lib(stm32f10x_nvic.o)
                0x0800a3b4                NVIC_SetVectorTable
 .text.NVIC_GenerateCoreReset
                0x0800a3e4       0x1c C:\Program Files (x86)\Intelitek\easyC V4 for Cortex\#Tools\STM32F103VD\easyCRuntime\easyCRuntimeLib.lib(stm32f10x_nvic.o)
                0x0800a3e4                NVIC_GenerateCoreReset
 .text.RCC_DeInit
                0x0800a400       0x9c C:\Program Files (x86)\Intelitek\easyC V4 for Cortex\#Tools\STM32F103VD\easyCRuntime\easyCRuntimeLib.lib(stm32f10x_rcc.o)
                0x0800a400                RCC_DeInit
 .text.RCC_HSEConfig
                0x0800a49c       0x8c C:\Program Files (x86)\Intelitek\easyC V4 for Cortex\#Tools\STM32F103VD\easyCRuntime\easyCRuntimeLib.lib(stm32f10x_rcc.o)
                0x0800a49c                RCC_HSEConfig
 .text.RCC_WaitForHSEStartUp
                0x0800a528       0x64 C:\Program Files (x86)\Intelitek\easyC V4 for Cortex\#Tools\STM32F103VD\easyCRuntime\easyCRuntimeLib.lib(stm32f10x_rcc.o)
                0x0800a528                RCC_WaitForHSEStartUp
 .text.RCC_PLLConfig
                0x0800a58c       0x4c C:\Program Files (x86)\Intelitek\easyC V4 for Cortex\#Tools\STM32F103VD\easyCRuntime\easyCRuntimeLib.lib(stm32f10x_rcc.o)
                0x0800a58c                RCC_PLLConfig
 .text.RCC_PLLCmd
                0x0800a5d8       0x20 C:\Program Files (x86)\Intelitek\easyC V4 for Cortex\#Tools\STM32F103VD\easyCRuntime\easyCRuntimeLib.lib(stm32f10x_rcc.o)
                0x0800a5d8                RCC_PLLCmd
 .text.RCC_SYSCLKConfig
                0x0800a5f8       0x44 C:\Program Files (x86)\Intelitek\easyC V4 for Cortex\#Tools\STM32F103VD\easyCRuntime\easyCRuntimeLib.lib(stm32f10x_rcc.o)
                0x0800a5f8                RCC_SYSCLKConfig
 .text.RCC_GetSYSCLKSource
                0x0800a63c       0x1c C:\Program Files (x86)\Intelitek\easyC V4 for Cortex\#Tools\STM32F103VD\easyCRuntime\easyCRuntimeLib.lib(stm32f10x_rcc.o)
                0x0800a63c                RCC_GetSYSCLKSource
 .text.RCC_HCLKConfig
                0x0800a658       0x44 C:\Program Files (x86)\Intelitek\easyC V4 for Cortex\#Tools\STM32F103VD\easyCRuntime\easyCRuntimeLib.lib(stm32f10x_rcc.o)
                0x0800a658                RCC_HCLKConfig
 .text.RCC_PCLK1Config
                0x0800a69c       0x44 C:\Program Files (x86)\Intelitek\easyC V4 for Cortex\#Tools\STM32F103VD\easyCRuntime\easyCRuntimeLib.lib(stm32f10x_rcc.o)
                0x0800a69c                RCC_PCLK1Config
 .text.RCC_PCLK2Config
                0x0800a6e0       0x48 C:\Program Files (x86)\Intelitek\easyC V4 for Cortex\#Tools\STM32F103VD\easyCRuntime\easyCRuntimeLib.lib(stm32f10x_rcc.o)
                0x0800a6e0                RCC_PCLK2Config
 .text.RCC_ADCCLKConfig
                0x0800a728       0x44 C:\Program Files (x86)\Intelitek\easyC V4 for Cortex\#Tools\STM32F103VD\easyCRuntime\easyCRuntimeLib.lib(stm32f10x_rcc.o)
                0x0800a728                RCC_ADCCLKConfig
 .text.RCC_GetClocksFreq
                0x0800a76c      0x1c8 C:\Program Files (x86)\Intelitek\easyC V4 for Cortex\#Tools\STM32F103VD\easyCRuntime\easyCRuntimeLib.lib(stm32f10x_rcc.o)
                0x0800a76c                RCC_GetClocksFreq
 .text.RCC_AHBPeriphClockCmd
                0x0800a934       0x58 C:\Program Files (x86)\Intelitek\easyC V4 for Cortex\#Tools\STM32F103VD\easyCRuntime\easyCRuntimeLib.lib(stm32f10x_rcc.o)
                0x0800a934                RCC_AHBPeriphClockCmd
 .text.RCC_APB2PeriphClockCmd
                0x0800a98c       0x58 C:\Program Files (x86)\Intelitek\easyC V4 for Cortex\#Tools\STM32F103VD\easyCRuntime\easyCRuntimeLib.lib(stm32f10x_rcc.o)
                0x0800a98c                RCC_APB2PeriphClockCmd
 .text.RCC_APB1PeriphClockCmd
                0x0800a9e4       0x58 C:\Program Files (x86)\Intelitek\easyC V4 for Cortex\#Tools\STM32F103VD\easyCRuntime\easyCRuntimeLib.lib(stm32f10x_rcc.o)
                0x0800a9e4                RCC_APB1PeriphClockCmd
 .text.RCC_APB2PeriphResetCmd
                0x0800aa3c       0x58 C:\Program Files (x86)\Intelitek\easyC V4 for Cortex\#Tools\STM32F103VD\easyCRuntime\easyCRuntimeLib.lib(stm32f10x_rcc.o)
                0x0800aa3c                RCC_APB2PeriphResetCmd
 .text.RCC_GetFlagStatus
                0x0800aa94       0x90 C:\Program Files (x86)\Intelitek\easyC V4 for Cortex\#Tools\STM32F103VD\easyCRuntime\easyCRuntimeLib.lib(stm32f10x_rcc.o)
                0x0800aa94                RCC_GetFlagStatus
 .text.SPI_Init
                0x0800ab24       0xa8 C:\Program Files (x86)\Intelitek\easyC V4 for Cortex\#Tools\STM32F103VD\easyCRuntime\easyCRuntimeLib.lib(stm32f10x_spi.o)
                0x0800ab24                SPI_Init
 .text.SPI_Cmd  0x0800abcc       0x50 C:\Program Files (x86)\Intelitek\easyC V4 for Cortex\#Tools\STM32F103VD\easyCRuntime\easyCRuntimeLib.lib(stm32f10x_spi.o)
                0x0800abcc                SPI_Cmd
 .text.SPI_I2S_SendData
                0x0800ac1c       0x1c C:\Program Files (x86)\Intelitek\easyC V4 for Cortex\#Tools\STM32F103VD\easyCRuntime\easyCRuntimeLib.lib(stm32f10x_spi.o)
                0x0800ac1c                SPI_I2S_SendData
 .text.SPI_I2S_ReceiveData
                0x0800ac38       0x1c C:\Program Files (x86)\Intelitek\easyC V4 for Cortex\#Tools\STM32F103VD\easyCRuntime\easyCRuntimeLib.lib(stm32f10x_spi.o)
                0x0800ac38                SPI_I2S_ReceiveData
 .text.SPI_I2S_GetFlagStatus
                0x0800ac54       0x40 C:\Program Files (x86)\Intelitek\easyC V4 for Cortex\#Tools\STM32F103VD\easyCRuntime\easyCRuntimeLib.lib(stm32f10x_spi.o)
                0x0800ac54                SPI_I2S_GetFlagStatus
 .text.SysTick_SetReload
                0x0800ac94       0x20 C:\Program Files (x86)\Intelitek\easyC V4 for Cortex\#Tools\STM32F103VD\easyCRuntime\easyCRuntimeLib.lib(stm32f10x_systick.o)
                0x0800ac94                SysTick_SetReload
 .text.SysTick_CounterCmd
                0x0800acb4       0x64 C:\Program Files (x86)\Intelitek\easyC V4 for Cortex\#Tools\STM32F103VD\easyCRuntime\easyCRuntimeLib.lib(stm32f10x_systick.o)
                0x0800acb4                SysTick_CounterCmd
 .text.SysTick_ITConfig
                0x0800ad18       0x4c C:\Program Files (x86)\Intelitek\easyC V4 for Cortex\#Tools\STM32F103VD\easyCRuntime\easyCRuntimeLib.lib(stm32f10x_systick.o)
                0x0800ad18                SysTick_ITConfig
 .text.TIM_TimeBaseInit
                0x0800ad64       0x84 C:\Program Files (x86)\Intelitek\easyC V4 for Cortex\#Tools\STM32F103VD\easyCRuntime\easyCRuntimeLib.lib(stm32f10x_tim.o)
                0x0800ad64                TIM_TimeBaseInit
 .text.TIM_Cmd  0x0800ade8       0x50 C:\Program Files (x86)\Intelitek\easyC V4 for Cortex\#Tools\STM32F103VD\easyCRuntime\easyCRuntimeLib.lib(stm32f10x_tim.o)
                0x0800ade8                TIM_Cmd
 .text.TIM_ITConfig
                0x0800ae38       0x4c C:\Program Files (x86)\Intelitek\easyC V4 for Cortex\#Tools\STM32F103VD\easyCRuntime\easyCRuntimeLib.lib(stm32f10x_tim.o)
                0x0800ae38                TIM_ITConfig
 .text.TIM_ARRPreloadConfig
                0x0800ae84       0x50 C:\Program Files (x86)\Intelitek\easyC V4 for Cortex\#Tools\STM32F103VD\easyCRuntime\easyCRuntimeLib.lib(stm32f10x_tim.o)
                0x0800ae84                TIM_ARRPreloadConfig
 .text.TIM_OC1PreloadConfig
                0x0800aed4       0x3c C:\Program Files (x86)\Intelitek\easyC V4 for Cortex\#Tools\STM32F103VD\easyCRuntime\easyCRuntimeLib.lib(stm32f10x_tim.o)
                0x0800aed4                TIM_OC1PreloadConfig
 .text.TIM_GetCapture3
                0x0800af10       0x1c C:\Program Files (x86)\Intelitek\easyC V4 for Cortex\#Tools\STM32F103VD\easyCRuntime\easyCRuntimeLib.lib(stm32f10x_tim.o)
                0x0800af10                TIM_GetCapture3
 .text.TIM_GetITStatus
                0x0800af2c       0x64 C:\Program Files (x86)\Intelitek\easyC V4 for Cortex\#Tools\STM32F103VD\easyCRuntime\easyCRuntimeLib.lib(stm32f10x_tim.o)
                0x0800af2c                TIM_GetITStatus
 .text.TIM_ClearITPendingBit
                0x0800af90       0x24 C:\Program Files (x86)\Intelitek\easyC V4 for Cortex\#Tools\STM32F103VD\easyCRuntime\easyCRuntimeLib.lib(stm32f10x_tim.o)
                0x0800af90                TIM_ClearITPendingBit
 .text.USART_Init
                0x0800afb4      0x180 C:\Program Files (x86)\Intelitek\easyC V4 for Cortex\#Tools\STM32F103VD\easyCRuntime\easyCRuntimeLib.lib(stm32f10x_usart.o)
                0x0800afb4                USART_Init
 .text.USART_Cmd
                0x0800b134       0x50 C:\Program Files (x86)\Intelitek\easyC V4 for Cortex\#Tools\STM32F103VD\easyCRuntime\easyCRuntimeLib.lib(stm32f10x_usart.o)
                0x0800b134                USART_Cmd
 .text.USART_ITConfig
                0x0800b184       0xac C:\Program Files (x86)\Intelitek\easyC V4 for Cortex\#Tools\STM32F103VD\easyCRuntime\easyCRuntimeLib.lib(stm32f10x_usart.o)
                0x0800b184                USART_ITConfig
 .text.USART_SendData
                0x0800b230       0x30 C:\Program Files (x86)\Intelitek\easyC V4 for Cortex\#Tools\STM32F103VD\easyCRuntime\easyCRuntimeLib.lib(stm32f10x_usart.o)
                0x0800b230                USART_SendData
 .text.USART_ReceiveData
                0x0800b260       0x2c C:\Program Files (x86)\Intelitek\easyC V4 for Cortex\#Tools\STM32F103VD\easyCRuntime\easyCRuntimeLib.lib(stm32f10x_usart.o)
                0x0800b260                USART_ReceiveData
 .text.USART_GetFlagStatus
                0x0800b28c       0x40 C:\Program Files (x86)\Intelitek\easyC V4 for Cortex\#Tools\STM32F103VD\easyCRuntime\easyCRuntimeLib.lib(stm32f10x_usart.o)
                0x0800b28c                USART_GetFlagStatus
 .text._write   0x0800b2cc       0x20 C:\Program Files (x86)\Intelitek\easyC V4 for Cortex\#Tools\STM32F103VD\Link\STM32x_io_putchar_thumb.a(syscalls.o)
                0x0800b2cc                _write
 *(.rodata)
 .rodata        0x0800b2ec       0xfc C:\Program Files (x86)\Intelitek\easyC V4 for Cortex\#Tools\STM32F103VD\Startup\Startup.o
 .rodata        0x0800b3e8        0xc C:\Users\Vex-Laptop02\AppData\Roaming\Intelitek\easyC V4 for Cortex\Temp\MainIO.o
 .rodata        0x0800b3f4      0x174 C:\Program Files (x86)\Intelitek\easyC V4 for Cortex\#Tools\STM32F103VD\easyCRuntime\easyCRuntimeLib.lib(Clock.o)
 .rodata        0x0800b568       0x7c C:\Program Files (x86)\Intelitek\easyC V4 for Cortex\#Tools\STM32F103VD\easyCRuntime\easyCRuntimeLib.lib(Comm.o)
 .rodata        0x0800b5e4       0x30 C:\Program Files (x86)\Intelitek\easyC V4 for Cortex\#Tools\STM32F103VD\easyCRuntime\easyCRuntimeLib.lib(InputOutput.o)
 .rodata        0x0800b614       0x28 C:\Program Files (x86)\Intelitek\easyC V4 for Cortex\#Tools\STM32F103VD\easyCRuntime\easyCRuntimeLib.lib(Interrupts.o)
 .rodata        0x0800b63c       0xcc C:\Program Files (x86)\Intelitek\easyC V4 for Cortex\#Tools\STM32F103VD\easyCRuntime\easyCRuntimeLib.lib(Motors.o)
 .rodata        0x0800b708      0x15c C:\Program Files (x86)\Intelitek\easyC V4 for Cortex\#Tools\STM32F103VD\easyCRuntime\easyCRuntimeLib.lib(OI.o)
 .rodata        0x0800b864       0x14 C:\Program Files (x86)\Intelitek\easyC V4 for Cortex\#Tools\STM32F103VD\easyCRuntime\easyCRuntimeLib.lib(stm32f10x_rcc.o)
 .rodata        0x0800b878      0x184 C:\Program Files (x86)\Intelitek\easyC V4 for Cortex\#Tools\STM32F103VD\Link\e_stdio_thumb.a(_sp_vfprintf.o)
 .rodata        0x0800b9fc       0x18 C:\Program Files (x86)\Intelitek\easyC V4 for Cortex\#Tools\STM32F103VD\Link\e_stdio_thumb.a(small_dtoa.o)
 *fill*         0x0800ba14        0x4 00
 .rodata        0x0800ba18      0x128 C:\Program Files (x86)\Intelitek\easyC V4 for Cortex\#Tools\STM32F103VD\Link\e_stdio_thumb.a(small_mprec.o)
                0x0800ba18                __small_mprec_tens
                0x0800bb18                __small_mprec_tinytens
                0x0800baf0                __small_mprec_bigtens
 *(.rodata*)
 .rodata.str1.4
                0x0800bb40       0x5b C:\Program Files (x86)\Intelitek\easyC V4 for Cortex\#Tools\STM32F103VD\Link\e_stdio_thumb.a(_sp_vfprintf.o)
                                 0x5c (size before relaxing)
 *fill*         0x0800bb9b        0x1 00
 .rodata.str1.4
                0x0800bb9c        0x9 C:\Program Files (x86)\Intelitek\easyC V4 for Cortex\#Tools\STM32F103VD\Link\e_stdio_thumb.a(small_dtoa.o)
                                 0x14 (size before relaxing)
 *fill*         0x0800bba5        0x3 00
 .rodata.str1.4
                0x0800bba8        0x4 c:/program files (x86)/intelitek/easyc v4 for cortex/#tools/arm-gcc/bin/../lib/gcc/arm-none-eabi/4.3.2/../../../../arm-none-eabi/lib/thumb2\libc.a(lib_a-impure.o)
 *(.glue_7)
 .glue_7        0x0800bbac        0x0 C:\Program Files (x86)\Intelitek\easyC V4 for Cortex\#Tools\STM32F103VD\Startup\Startup.o
 .glue_7        0x0800bbac        0x0 C:\Users\Vex-Laptop02\AppData\Roaming\Intelitek\easyC V4 for Cortex\Temp\Main.o
 .glue_7        0x0800bbac        0x0 C:\Users\Vex-Laptop02\AppData\Roaming\Intelitek\easyC V4 for Cortex\Temp\MainIO.o
 .glue_7        0x0800bbac        0x0 C:\Users\Vex-Laptop02\AppData\Roaming\Intelitek\easyC V4 for Cortex\Temp\Globals.o
 .glue_7        0x0800bbac        0x0 C:\Users\Vex-Laptop02\AppData\Roaming\Intelitek\easyC V4 for Cortex\Temp\Initialize.o
 .glue_7        0x0800bbac        0x0 C:\Users\Vex-Laptop02\AppData\Roaming\Intelitek\easyC V4 for Cortex\Temp\Autonomous.o
 .glue_7        0x0800bbac        0x0 C:\Users\Vex-Laptop02\AppData\Roaming\Intelitek\easyC V4 for Cortex\Temp\OperatorControl.o
 .glue_7        0x0800bbac        0x0 C:\Users\Vex-Laptop02\AppData\Roaming\Intelitek\easyC V4 for Cortex\Temp\moveBack.o
 .glue_7        0x0800bbac        0x0 C:\Users\Vex-Laptop02\AppData\Roaming\Intelitek\easyC V4 for Cortex\Temp\motorStop.o
 .glue_7        0x0800bbac        0x0 C:\Program Files (x86)\Intelitek\easyC V4 for Cortex\#Tools\STM32F103VD\easyCRuntime\easyCRuntimeLib.lib(easyCRuntime.o)
 .glue_7        0x0800bbac        0x0 C:\Program Files (x86)\Intelitek\easyC V4 for Cortex\#Tools\STM32F103VD\easyCRuntime\easyCRuntimeLib.lib(Clock.o)
 .glue_7        0x0800bbac        0x0 C:\Program Files (x86)\Intelitek\easyC V4 for Cortex\#Tools\STM32F103VD\easyCRuntime\easyCRuntimeLib.lib(Comm.o)
 .glue_7        0x0800bbac        0x0 C:\Program Files (x86)\Intelitek\easyC V4 for Cortex\#Tools\STM32F103VD\easyCRuntime\easyCRuntimeLib.lib(Config.o)
 .glue_7        0x0800bbac        0x0 C:\Program Files (x86)\Intelitek\easyC V4 for Cortex\#Tools\STM32F103VD\easyCRuntime\easyCRuntimeLib.lib(InputOutput.o)
 .glue_7        0x0800bbac        0x0 C:\Program Files (x86)\Intelitek\easyC V4 for Cortex\#Tools\STM32F103VD\easyCRuntime\easyCRuntimeLib.lib(Interrupts.o)
 .glue_7        0x0800bbac        0x0 C:\Program Files (x86)\Intelitek\easyC V4 for Cortex\#Tools\STM32F103VD\easyCRuntime\easyCRuntimeLib.lib(Motors.o)
 .glue_7        0x0800bbac        0x0 C:\Program Files (x86)\Intelitek\easyC V4 for Cortex\#Tools\STM32F103VD\easyCRuntime\easyCRuntimeLib.lib(OI.o)
 .glue_7        0x0800bbac        0x0 C:\Program Files (x86)\Intelitek\easyC V4 for Cortex\#Tools\STM32F103VD\easyCRuntime\easyCRuntimeLib.lib(Print.o)
 .glue_7        0x0800bbac        0x0 C:\Program Files (x86)\Intelitek\easyC V4 for Cortex\#Tools\STM32F103VD\easyCRuntime\easyCRuntimeLib.lib(stm32f10x_it.o)
 .glue_7        0x0800bbac        0x0 C:\Program Files (x86)\Intelitek\easyC V4 for Cortex\#Tools\STM32F103VD\easyCRuntime\easyCRuntimeLib.lib(ddt_support.o)
 .glue_7        0x0800bbac        0x0 C:\Program Files (x86)\Intelitek\easyC V4 for Cortex\#Tools\STM32F103VD\easyCRuntime\easyCRuntimeLib.lib(SerialPorts.o)
 .glue_7        0x0800bbac        0x0 C:\Program Files (x86)\Intelitek\easyC V4 for Cortex\#Tools\STM32F103VD\easyCRuntime\easyCRuntimeLib.lib(stm32f10x_adc.o)
 .glue_7        0x0800bbac        0x0 C:\Program Files (x86)\Intelitek\easyC V4 for Cortex\#Tools\STM32F103VD\easyCRuntime\easyCRuntimeLib.lib(stm32f10x_dma.o)
 .glue_7        0x0800bbac        0x0 C:\Program Files (x86)\Intelitek\easyC V4 for Cortex\#Tools\STM32F103VD\easyCRuntime\easyCRuntimeLib.lib(stm32f10x_exti.o)
 .glue_7        0x0800bbac        0x0 C:\Program Files (x86)\Intelitek\easyC V4 for Cortex\#Tools\STM32F103VD\easyCRuntime\easyCRuntimeLib.lib(stm32f10x_flash.o)
 .glue_7        0x0800bbac        0x0 C:\Program Files (x86)\Intelitek\easyC V4 for Cortex\#Tools\STM32F103VD\easyCRuntime\easyCRuntimeLib.lib(stm32f10x_gpio.o)
 .glue_7        0x0800bbac        0x0 C:\Program Files (x86)\Intelitek\easyC V4 for Cortex\#Tools\STM32F103VD\easyCRuntime\easyCRuntimeLib.lib(stm32f10x_nvic.o)
 .glue_7        0x0800bbac        0x0 C:\Program Files (x86)\Intelitek\easyC V4 for Cortex\#Tools\STM32F103VD\easyCRuntime\easyCRuntimeLib.lib(stm32f10x_rcc.o)
 .glue_7        0x0800bbac        0x0 C:\Program Files (x86)\Intelitek\easyC V4 for Cortex\#Tools\STM32F103VD\easyCRuntime\easyCRuntimeLib.lib(stm32f10x_spi.o)
 .glue_7        0x0800bbac        0x0 C:\Program Files (x86)\Intelitek\easyC V4 for Cortex\#Tools\STM32F103VD\easyCRuntime\easyCRuntimeLib.lib(stm32f10x_systick.o)
 .glue_7        0x0800bbac        0x0 C:\Program Files (x86)\Intelitek\easyC V4 for Cortex\#Tools\STM32F103VD\easyCRuntime\easyCRuntimeLib.lib(stm32f10x_tim.o)
 .glue_7        0x0800bbac        0x0 C:\Program Files (x86)\Intelitek\easyC V4 for Cortex\#Tools\STM32F103VD\easyCRuntime\easyCRuntimeLib.lib(stm32f10x_usart.o)
 .glue_7        0x0800bbac        0x0 C:\Program Files (x86)\Intelitek\easyC V4 for Cortex\#Tools\STM32F103VD\easyCRuntime\easyCRuntimeLib.lib(cortexm3_macro.o)
 .glue_7        0x0800bbac        0x0 C:\Program Files (x86)\Intelitek\easyC V4 for Cortex\#Tools\STM32F103VD\Link\STM32x_io_putchar_thumb.a(syscalls.o)
 .glue_7        0x0800bbac        0x0 C:\Program Files (x86)\Intelitek\easyC V4 for Cortex\#Tools\STM32F103VD\Link\e_stdio_thumb.a(_sp_printf.o)
 .glue_7        0x0800bbac        0x0 C:\Program Files (x86)\Intelitek\easyC V4 for Cortex\#Tools\STM32F103VD\Link\e_stdio_thumb.a(_sp_vfprintf.o)
 .glue_7        0x0800bbac        0x0 C:\Program Files (x86)\Intelitek\easyC V4 for Cortex\#Tools\STM32F103VD\Link\e_stdio_thumb.a(_sp_puts.o)
 .glue_7        0x0800bbac        0x0 C:\Program Files (x86)\Intelitek\easyC V4 for Cortex\#Tools\STM32F103VD\Link\e_stdio_thumb.a(_sp_sprintf.o)
 .glue_7        0x0800bbac        0x0 C:\Program Files (x86)\Intelitek\easyC V4 for Cortex\#Tools\STM32F103VD\Link\e_stdio_thumb.a(small_dtoa.o)
 .glue_7        0x0800bbac        0x0 C:\Program Files (x86)\Intelitek\easyC V4 for Cortex\#Tools\STM32F103VD\Link\e_stdio_thumb.a(small_wcsrtombs.o)
 .glue_7        0x0800bbac        0x0 C:\Program Files (x86)\Intelitek\easyC V4 for Cortex\#Tools\STM32F103VD\Link\e_stdio_thumb.a(small_wcrtomb.o)
 .glue_7        0x0800bbac        0x0 C:\Program Files (x86)\Intelitek\easyC V4 for Cortex\#Tools\STM32F103VD\Link\e_stdio_thumb.a(small_mprec.o)
 .glue_7        0x0800bbac        0x0 c:/program files (x86)/intelitek/easyc v4 for cortex/#tools/arm-gcc/bin/../lib/gcc/arm-none-eabi/4.3.2/../../../../arm-none-eabi/lib/thumb2\libc.a(lib_a-abort.o)
 .glue_7        0x0800bbac        0x0 c:/program files (x86)/intelitek/easyc v4 for cortex/#tools/arm-gcc/bin/../lib/gcc/arm-none-eabi/4.3.2/../../../../arm-none-eabi/lib/thumb2\libc.a(lib_a-errno.o)
 .glue_7        0x0800bbac        0x0 c:/program files (x86)/intelitek/easyc v4 for cortex/#tools/arm-gcc/bin/../lib/gcc/arm-none-eabi/4.3.2/../../../../arm-none-eabi/lib/thumb2\libc.a(lib_a-impure.o)
 .glue_7        0x0800bbac        0x0 c:/program files (x86)/intelitek/easyc v4 for cortex/#tools/arm-gcc/bin/../lib/gcc/arm-none-eabi/4.3.2/../../../../arm-none-eabi/lib/thumb2\libc.a(lib_a-memchr.o)
 .glue_7        0x0800bbac        0x0 c:/program files (x86)/intelitek/easyc v4 for cortex/#tools/arm-gcc/bin/../lib/gcc/arm-none-eabi/4.3.2/../../../../arm-none-eabi/lib/thumb2\libc.a(lib_a-memcpy.o)
 .glue_7        0x0800bbac        0x0 c:/program files (x86)/intelitek/easyc v4 for cortex/#tools/arm-gcc/bin/../lib/gcc/arm-none-eabi/4.3.2/../../../../arm-none-eabi/lib/thumb2\libc.a(lib_a-memset.o)
 .glue_7        0x0800bbac        0x0 c:/program files (x86)/intelitek/easyc v4 for cortex/#tools/arm-gcc/bin/../lib/gcc/arm-none-eabi/4.3.2/../../../../arm-none-eabi/lib/thumb2\libc.a(lib_a-s_isinfd.o)
 .glue_7        0x0800bbac        0x0 c:/program files (x86)/intelitek/easyc v4 for cortex/#tools/arm-gcc/bin/../lib/gcc/arm-none-eabi/4.3.2/../../../../arm-none-eabi/lib/thumb2\libc.a(lib_a-s_isnand.o)
 .glue_7        0x0800bbac        0x0 c:/program files (x86)/intelitek/easyc v4 for cortex/#tools/arm-gcc/bin/../lib/gcc/arm-none-eabi/4.3.2/../../../../arm-none-eabi/lib/thumb2\libc.a(lib_a-signal.o)
 .glue_7        0x0800bbac        0x0 c:/program files (x86)/intelitek/easyc v4 for cortex/#tools/arm-gcc/bin/../lib/gcc/arm-none-eabi/4.3.2/../../../../arm-none-eabi/lib/thumb2\libc.a(lib_a-signalr.o)
 .glue_7        0x0800bbac        0x0 c:/program files (x86)/intelitek/easyc v4 for cortex/#tools/arm-gcc/bin/../lib/gcc/arm-none-eabi/4.3.2/../../../../arm-none-eabi/lib/thumb2\libc.a(lib_a-strlen.o)
 .glue_7        0x0800bbac        0x0 c:/program files (x86)/intelitek/easyc v4 for cortex/#tools/arm-gcc/bin/../lib/gcc/arm-none-eabi/4.3.2/../../../../arm-none-eabi/lib/thumb2\libc.a(lib_a-vsprintf.o)
 .glue_7        0x0800bbac        0x0 c:/program files (x86)/intelitek/easyc v4 for cortex/#tools/arm-gcc/bin/../lib/gcc/arm-none-eabi/4.3.2/../../../../arm-none-eabi/lib/thumb2\libc.a(lib_a-mallocr.o)
 .glue_7        0x0800bbac        0x0 c:/program files (x86)/intelitek/easyc v4 for cortex/#tools/arm-gcc/bin/../lib/gcc/arm-none-eabi/4.3.2/../../../../arm-none-eabi/lib/thumb2\libc.a(lib_a-mlock.o)
 .glue_7        0x0800bbac        0x0 c:/program files (x86)/intelitek/easyc v4 for cortex/#tools/arm-gcc/bin/../lib/gcc/arm-none-eabi/4.3.2/../../../../arm-none-eabi/lib/thumb2\libc.a(lib_a-reent.o)
 .glue_7        0x0800bbac        0x0 c:/program files (x86)/intelitek/easyc v4 for cortex/#tools/arm-gcc/bin/../lib/gcc/arm-none-eabi/4.3.2/../../../../arm-none-eabi/lib/thumb2\libc.a(lib_a-sbrkr.o)
 .glue_7        0x0800bbac        0x0 c:/program files (x86)/intelitek/easyc v4 for cortex/#tools/arm-gcc/bin/../lib/gcc/arm-none-eabi/4.3.2/../../../../arm-none-eabi/lib/thumb2\libc.a(lib_a-freer.o)
 .glue_7        0x0800bbac        0x0 c:/program files (x86)/intelitek/easyc v4 for cortex/#tools/arm-gcc/bin/../lib/gcc/arm-none-eabi/4.3.2/thumb2\libgcc.a(_udivsi3.o)
 .glue_7        0x0800bbac        0x0 c:/program files (x86)/intelitek/easyc v4 for cortex/#tools/arm-gcc/bin/../lib/gcc/arm-none-eabi/4.3.2/thumb2\libgcc.a(_divsi3.o)
 .glue_7        0x0800bbac        0x0 c:/program files (x86)/intelitek/easyc v4 for cortex/#tools/arm-gcc/bin/../lib/gcc/arm-none-eabi/4.3.2/thumb2\libgcc.a(_dvmd_tls.o)
 .glue_7        0x0800bbac        0x0 c:/program files (x86)/intelitek/easyc v4 for cortex/#tools/arm-gcc/bin/../lib/gcc/arm-none-eabi/4.3.2/thumb2\libgcc.a(_arm_addsubdf3.o)
 .glue_7        0x0800bbac        0x0 c:/program files (x86)/intelitek/easyc v4 for cortex/#tools/arm-gcc/bin/../lib/gcc/arm-none-eabi/4.3.2/thumb2\libgcc.a(_arm_muldivdf3.o)
 .glue_7        0x0800bbac        0x0 c:/program files (x86)/intelitek/easyc v4 for cortex/#tools/arm-gcc/bin/../lib/gcc/arm-none-eabi/4.3.2/thumb2\libgcc.a(_arm_cmpdf2.o)
 .glue_7        0x0800bbac        0x0 c:/program files (x86)/intelitek/easyc v4 for cortex/#tools/arm-gcc/bin/../lib/gcc/arm-none-eabi/4.3.2/thumb2\libgcc.a(_arm_fixdfsi.o)
 .glue_7        0x0800bbac        0x0 c:/program files (x86)/intelitek/easyc v4 for cortex/#tools/arm-gcc/bin/../lib/gcc/arm-none-eabi/4.3.2/thumb2\libgcc.a(_arm_truncdfsf2.o)
 .glue_7        0x0800bbac        0x0 c:/program files (x86)/intelitek/easyc v4 for cortex/#tools/arm-gcc/bin/../lib/gcc/arm-none-eabi/4.3.2/thumb2\libgcc.a(_arm_addsubsf3.o)
 .glue_7        0x0800bbac        0x0 c:/program files (x86)/intelitek/easyc v4 for cortex/#tools/arm-gcc/bin/../lib/gcc/arm-none-eabi/4.3.2/thumb2\libgcc.a(_arm_muldivsf3.o)
 .glue_7        0x0800bbac        0x0 c:/program files (x86)/intelitek/easyc v4 for cortex/#tools/arm-gcc/bin/../lib/gcc/arm-none-eabi/4.3.2/thumb2\libgcc.a(_arm_cmpsf2.o)
 .glue_7        0x0800bbac        0x0 c:/program files (x86)/intelitek/easyc v4 for cortex/#tools/arm-gcc/bin/../lib/gcc/arm-none-eabi/4.3.2/thumb2\libgcc.a(_arm_fixunssfsi.o)
 *(.glue_7t)
 .glue_7t       0x0800bbac        0x0 C:\Program Files (x86)\Intelitek\easyC V4 for Cortex\#Tools\STM32F103VD\Startup\Startup.o
 .glue_7t       0x0800bbac        0x0 C:\Users\Vex-Laptop02\AppData\Roaming\Intelitek\easyC V4 for Cortex\Temp\Main.o
 .glue_7t       0x0800bbac        0x0 C:\Users\Vex-Laptop02\AppData\Roaming\Intelitek\easyC V4 for Cortex\Temp\MainIO.o
 .glue_7t       0x0800bbac        0x0 C:\Users\Vex-Laptop02\AppData\Roaming\Intelitek\easyC V4 for Cortex\Temp\Globals.o
 .glue_7t       0x0800bbac        0x0 C:\Users\Vex-Laptop02\AppData\Roaming\Intelitek\easyC V4 for Cortex\Temp\Initialize.o
 .glue_7t       0x0800bbac        0x0 C:\Users\Vex-Laptop02\AppData\Roaming\Intelitek\easyC V4 for Cortex\Temp\Autonomous.o
 .glue_7t       0x0800bbac        0x0 C:\Users\Vex-Laptop02\AppData\Roaming\Intelitek\easyC V4 for Cortex\Temp\OperatorControl.o
 .glue_7t       0x0800bbac        0x0 C:\Users\Vex-Laptop02\AppData\Roaming\Intelitek\easyC V4 for Cortex\Temp\moveBack.o
 .glue_7t       0x0800bbac        0x0 C:\Users\Vex-Laptop02\AppData\Roaming\Intelitek\easyC V4 for Cortex\Temp\motorStop.o
 .glue_7t       0x0800bbac        0x0 C:\Program Files (x86)\Intelitek\easyC V4 for Cortex\#Tools\STM32F103VD\easyCRuntime\easyCRuntimeLib.lib(easyCRuntime.o)
 .glue_7t       0x0800bbac        0x0 C:\Program Files (x86)\Intelitek\easyC V4 for Cortex\#Tools\STM32F103VD\easyCRuntime\easyCRuntimeLib.lib(Clock.o)
 .glue_7t       0x0800bbac        0x0 C:\Program Files (x86)\Intelitek\easyC V4 for Cortex\#Tools\STM32F103VD\easyCRuntime\easyCRuntimeLib.lib(Comm.o)
 .glue_7t       0x0800bbac        0x0 C:\Program Files (x86)\Intelitek\easyC V4 for Cortex\#Tools\STM32F103VD\easyCRuntime\easyCRuntimeLib.lib(Config.o)
 .glue_7t       0x0800bbac        0x0 C:\Program Files (x86)\Intelitek\easyC V4 for Cortex\#Tools\STM32F103VD\easyCRuntime\easyCRuntimeLib.lib(InputOutput.o)
 .glue_7t       0x0800bbac        0x0 C:\Program Files (x86)\Intelitek\easyC V4 for Cortex\#Tools\STM32F103VD\easyCRuntime\easyCRuntimeLib.lib(Interrupts.o)
 .glue_7t       0x0800bbac        0x0 C:\Program Files (x86)\Intelitek\easyC V4 for Cortex\#Tools\STM32F103VD\easyCRuntime\easyCRuntimeLib.lib(Motors.o)
 .glue_7t       0x0800bbac        0x0 C:\Program Files (x86)\Intelitek\easyC V4 for Cortex\#Tools\STM32F103VD\easyCRuntime\easyCRuntimeLib.lib(OI.o)
 .glue_7t       0x0800bbac        0x0 C:\Program Files (x86)\Intelitek\easyC V4 for Cortex\#Tools\STM32F103VD\easyCRuntime\easyCRuntimeLib.lib(Print.o)
 .glue_7t       0x0800bbac        0x0 C:\Program Files (x86)\Intelitek\easyC V4 for Cortex\#Tools\STM32F103VD\easyCRuntime\easyCRuntimeLib.lib(stm32f10x_it.o)
 .glue_7t       0x0800bbac        0x0 C:\Program Files (x86)\Intelitek\easyC V4 for Cortex\#Tools\STM32F103VD\easyCRuntime\easyCRuntimeLib.lib(ddt_support.o)
 .glue_7t       0x0800bbac        0x0 C:\Program Files (x86)\Intelitek\easyC V4 for Cortex\#Tools\STM32F103VD\easyCRuntime\easyCRuntimeLib.lib(SerialPorts.o)
 .glue_7t       0x0800bbac        0x0 C:\Program Files (x86)\Intelitek\easyC V4 for Cortex\#Tools\STM32F103VD\easyCRuntime\easyCRuntimeLib.lib(stm32f10x_adc.o)
 .glue_7t       0x0800bbac        0x0 C:\Program Files (x86)\Intelitek\easyC V4 for Cortex\#Tools\STM32F103VD\easyCRuntime\easyCRuntimeLib.lib(stm32f10x_dma.o)
 .glue_7t       0x0800bbac        0x0 C:\Program Files (x86)\Intelitek\easyC V4 for Cortex\#Tools\STM32F103VD\easyCRuntime\easyCRuntimeLib.lib(stm32f10x_exti.o)
 .glue_7t       0x0800bbac        0x0 C:\Program Files (x86)\Intelitek\easyC V4 for Cortex\#Tools\STM32F103VD\easyCRuntime\easyCRuntimeLib.lib(stm32f10x_flash.o)
 .glue_7t       0x0800bbac        0x0 C:\Program Files (x86)\Intelitek\easyC V4 for Cortex\#Tools\STM32F103VD\easyCRuntime\easyCRuntimeLib.lib(stm32f10x_gpio.o)
 .glue_7t       0x0800bbac        0x0 C:\Program Files (x86)\Intelitek\easyC V4 for Cortex\#Tools\STM32F103VD\easyCRuntime\easyCRuntimeLib.lib(stm32f10x_nvic.o)
 .glue_7t       0x0800bbac        0x0 C:\Program Files (x86)\Intelitek\easyC V4 for Cortex\#Tools\STM32F103VD\easyCRuntime\easyCRuntimeLib.lib(stm32f10x_rcc.o)
 .glue_7t       0x0800bbac        0x0 C:\Program Files (x86)\Intelitek\easyC V4 for Cortex\#Tools\STM32F103VD\easyCRuntime\easyCRuntimeLib.lib(stm32f10x_spi.o)
 .glue_7t       0x0800bbac        0x0 C:\Program Files (x86)\Intelitek\easyC V4 for Cortex\#Tools\STM32F103VD\easyCRuntime\easyCRuntimeLib.lib(stm32f10x_systick.o)
 .glue_7t       0x0800bbac        0x0 C:\Program Files (x86)\Intelitek\easyC V4 for Cortex\#Tools\STM32F103VD\easyCRuntime\easyCRuntimeLib.lib(stm32f10x_tim.o)
 .glue_7t       0x0800bbac        0x0 C:\Program Files (x86)\Intelitek\easyC V4 for Cortex\#Tools\STM32F103VD\easyCRuntime\easyCRuntimeLib.lib(stm32f10x_usart.o)
 .glue_7t       0x0800bbac        0x0 C:\Program Files (x86)\Intelitek\easyC V4 for Cortex\#Tools\STM32F103VD\easyCRuntime\easyCRuntimeLib.lib(cortexm3_macro.o)
 .glue_7t       0x0800bbac        0x0 C:\Program Files (x86)\Intelitek\easyC V4 for Cortex\#Tools\STM32F103VD\Link\STM32x_io_putchar_thumb.a(syscalls.o)
 .glue_7t       0x0800bbac        0x0 C:\Program Files (x86)\Intelitek\easyC V4 for Cortex\#Tools\STM32F103VD\Link\e_stdio_thumb.a(_sp_printf.o)
 .glue_7t       0x0800bbac        0x0 C:\Program Files (x86)\Intelitek\easyC V4 for Cortex\#Tools\STM32F103VD\Link\e_stdio_thumb.a(_sp_vfprintf.o)
 .glue_7t       0x0800bbac        0x0 C:\Program Files (x86)\Intelitek\easyC V4 for Cortex\#Tools\STM32F103VD\Link\e_stdio_thumb.a(_sp_puts.o)
 .glue_7t       0x0800bbac        0x0 C:\Program Files (x86)\Intelitek\easyC V4 for Cortex\#Tools\STM32F103VD\Link\e_stdio_thumb.a(_sp_sprintf.o)
 .glue_7t       0x0800bbac        0x0 C:\Program Files (x86)\Intelitek\easyC V4 for Cortex\#Tools\STM32F103VD\Link\e_stdio_thumb.a(small_dtoa.o)
 .glue_7t       0x0800bbac        0x0 C:\Program Files (x86)\Intelitek\easyC V4 for Cortex\#Tools\STM32F103VD\Link\e_stdio_thumb.a(small_wcsrtombs.o)
 .glue_7t       0x0800bbac        0x0 C:\Program Files (x86)\Intelitek\easyC V4 for Cortex\#Tools\STM32F103VD\Link\e_stdio_thumb.a(small_wcrtomb.o)
 .glue_7t       0x0800bbac        0x0 C:\Program Files (x86)\Intelitek\easyC V4 for Cortex\#Tools\STM32F103VD\Link\e_stdio_thumb.a(small_mprec.o)
 .glue_7t       0x0800bbac        0x0 c:/program files (x86)/intelitek/easyc v4 for cortex/#tools/arm-gcc/bin/../lib/gcc/arm-none-eabi/4.3.2/../../../../arm-none-eabi/lib/thumb2\libc.a(lib_a-abort.o)
 .glue_7t       0x0800bbac        0x0 c:/program files (x86)/intelitek/easyc v4 for cortex/#tools/arm-gcc/bin/../lib/gcc/arm-none-eabi/4.3.2/../../../../arm-none-eabi/lib/thumb2\libc.a(lib_a-errno.o)
 .glue_7t       0x0800bbac        0x0 c:/program files (x86)/intelitek/easyc v4 for cortex/#tools/arm-gcc/bin/../lib/gcc/arm-none-eabi/4.3.2/../../../../arm-none-eabi/lib/thumb2\libc.a(lib_a-impure.o)
 .glue_7t       0x0800bbac        0x0 c:/program files (x86)/intelitek/easyc v4 for cortex/#tools/arm-gcc/bin/../lib/gcc/arm-none-eabi/4.3.2/../../../../arm-none-eabi/lib/thumb2\libc.a(lib_a-memchr.o)
 .glue_7t       0x0800bbac        0x0 c:/program files (x86)/intelitek/easyc v4 for cortex/#tools/arm-gcc/bin/../lib/gcc/arm-none-eabi/4.3.2/../../../../arm-none-eabi/lib/thumb2\libc.a(lib_a-memcpy.o)
 .glue_7t       0x0800bbac        0x0 c:/program files (x86)/intelitek/easyc v4 for cortex/#tools/arm-gcc/bin/../lib/gcc/arm-none-eabi/4.3.2/../../../../arm-none-eabi/lib/thumb2\libc.a(lib_a-memset.o)
 .glue_7t       0x0800bbac        0x0 c:/program files (x86)/intelitek/easyc v4 for cortex/#tools/arm-gcc/bin/../lib/gcc/arm-none-eabi/4.3.2/../../../../arm-none-eabi/lib/thumb2\libc.a(lib_a-s_isinfd.o)
 .glue_7t       0x0800bbac        0x0 c:/program files (x86)/intelitek/easyc v4 for cortex/#tools/arm-gcc/bin/../lib/gcc/arm-none-eabi/4.3.2/../../../../arm-none-eabi/lib/thumb2\libc.a(lib_a-s_isnand.o)
 .glue_7t       0x0800bbac        0x0 c:/program files (x86)/intelitek/easyc v4 for cortex/#tools/arm-gcc/bin/../lib/gcc/arm-none-eabi/4.3.2/../../../../arm-none-eabi/lib/thumb2\libc.a(lib_a-signal.o)
 .glue_7t       0x0800bbac        0x0 c:/program files (x86)/intelitek/easyc v4 for cortex/#tools/arm-gcc/bin/../lib/gcc/arm-none-eabi/4.3.2/../../../../arm-none-eabi/lib/thumb2\libc.a(lib_a-signalr.o)
 .glue_7t       0x0800bbac        0x0 c:/program files (x86)/intelitek/easyc v4 for cortex/#tools/arm-gcc/bin/../lib/gcc/arm-none-eabi/4.3.2/../../../../arm-none-eabi/lib/thumb2\libc.a(lib_a-strlen.o)
 .glue_7t       0x0800bbac        0x0 c:/program files (x86)/intelitek/easyc v4 for cortex/#tools/arm-gcc/bin/../lib/gcc/arm-none-eabi/4.3.2/../../../../arm-none-eabi/lib/thumb2\libc.a(lib_a-vsprintf.o)
 .glue_7t       0x0800bbac        0x0 c:/program files (x86)/intelitek/easyc v4 for cortex/#tools/arm-gcc/bin/../lib/gcc/arm-none-eabi/4.3.2/../../../../arm-none-eabi/lib/thumb2\libc.a(lib_a-mallocr.o)
 .glue_7t       0x0800bbac        0x0 c:/program files (x86)/intelitek/easyc v4 for cortex/#tools/arm-gcc/bin/../lib/gcc/arm-none-eabi/4.3.2/../../../../arm-none-eabi/lib/thumb2\libc.a(lib_a-mlock.o)
 .glue_7t       0x0800bbac        0x0 c:/program files (x86)/intelitek/easyc v4 for cortex/#tools/arm-gcc/bin/../lib/gcc/arm-none-eabi/4.3.2/../../../../arm-none-eabi/lib/thumb2\libc.a(lib_a-reent.o)
 .glue_7t       0x0800bbac        0x0 c:/program files (x86)/intelitek/easyc v4 for cortex/#tools/arm-gcc/bin/../lib/gcc/arm-none-eabi/4.3.2/../../../../arm-none-eabi/lib/thumb2\libc.a(lib_a-sbrkr.o)
 .glue_7t       0x0800bbac        0x0 c:/program files (x86)/intelitek/easyc v4 for cortex/#tools/arm-gcc/bin/../lib/gcc/arm-none-eabi/4.3.2/../../../../arm-none-eabi/lib/thumb2\libc.a(lib_a-freer.o)
 .glue_7t       0x0800bbac        0x0 c:/program files (x86)/intelitek/easyc v4 for cortex/#tools/arm-gcc/bin/../lib/gcc/arm-none-eabi/4.3.2/thumb2\libgcc.a(_udivsi3.o)
 .glue_7t       0x0800bbac        0x0 c:/program files (x86)/intelitek/easyc v4 for cortex/#tools/arm-gcc/bin/../lib/gcc/arm-none-eabi/4.3.2/thumb2\libgcc.a(_divsi3.o)
 .glue_7t       0x0800bbac        0x0 c:/program files (x86)/intelitek/easyc v4 for cortex/#tools/arm-gcc/bin/../lib/gcc/arm-none-eabi/4.3.2/thumb2\libgcc.a(_dvmd_tls.o)
 .glue_7t       0x0800bbac        0x0 c:/program files (x86)/intelitek/easyc v4 for cortex/#tools/arm-gcc/bin/../lib/gcc/arm-none-eabi/4.3.2/thumb2\libgcc.a(_arm_addsubdf3.o)
 .glue_7t       0x0800bbac        0x0 c:/program files (x86)/intelitek/easyc v4 for cortex/#tools/arm-gcc/bin/../lib/gcc/arm-none-eabi/4.3.2/thumb2\libgcc.a(_arm_muldivdf3.o)
 .glue_7t       0x0800bbac        0x0 c:/program files (x86)/intelitek/easyc v4 for cortex/#tools/arm-gcc/bin/../lib/gcc/arm-none-eabi/4.3.2/thumb2\libgcc.a(_arm_cmpdf2.o)
 .glue_7t       0x0800bbac        0x0 c:/program files (x86)/intelitek/easyc v4 for cortex/#tools/arm-gcc/bin/../lib/gcc/arm-none-eabi/4.3.2/thumb2\libgcc.a(_arm_fixdfsi.o)
 .glue_7t       0x0800bbac        0x0 c:/program files (x86)/intelitek/easyc v4 for cortex/#tools/arm-gcc/bin/../lib/gcc/arm-none-eabi/4.3.2/thumb2\libgcc.a(_arm_truncdfsf2.o)
 .glue_7t       0x0800bbac        0x0 c:/program files (x86)/intelitek/easyc v4 for cortex/#tools/arm-gcc/bin/../lib/gcc/arm-none-eabi/4.3.2/thumb2\libgcc.a(_arm_addsubsf3.o)
 .glue_7t       0x0800bbac        0x0 c:/program files (x86)/intelitek/easyc v4 for cortex/#tools/arm-gcc/bin/../lib/gcc/arm-none-eabi/4.3.2/thumb2\libgcc.a(_arm_muldivsf3.o)
 .glue_7t       0x0800bbac        0x0 c:/program files (x86)/intelitek/easyc v4 for cortex/#tools/arm-gcc/bin/../lib/gcc/arm-none-eabi/4.3.2/thumb2\libgcc.a(_arm_cmpsf2.o)
 .glue_7t       0x0800bbac        0x0 c:/program files (x86)/intelitek/easyc v4 for cortex/#tools/arm-gcc/bin/../lib/gcc/arm-none-eabi/4.3.2/thumb2\libgcc.a(_arm_fixunssfsi.o)
                0x0800bbac                . = ALIGN (0x4)
                0x0800bbac                _etext = .
                0x0800bbac                _sidata = _etext

.vfp11_veneer   0x20000000        0x0
 .vfp11_veneer  0x20000000        0x0 C:\Program Files (x86)\Intelitek\easyC V4 for Cortex\#Tools\STM32F103VD\Startup\Startup.o
 .vfp11_veneer  0x20000000        0x0 C:\Users\Vex-Laptop02\AppData\Roaming\Intelitek\easyC V4 for Cortex\Temp\Main.o
 .vfp11_veneer  0x20000000        0x0 C:\Users\Vex-Laptop02\AppData\Roaming\Intelitek\easyC V4 for Cortex\Temp\MainIO.o
 .vfp11_veneer  0x20000000        0x0 C:\Users\Vex-Laptop02\AppData\Roaming\Intelitek\easyC V4 for Cortex\Temp\Globals.o
 .vfp11_veneer  0x20000000        0x0 C:\Users\Vex-Laptop02\AppData\Roaming\Intelitek\easyC V4 for Cortex\Temp\Initialize.o
 .vfp11_veneer  0x20000000        0x0 C:\Users\Vex-Laptop02\AppData\Roaming\Intelitek\easyC V4 for Cortex\Temp\Autonomous.o
 .vfp11_veneer  0x20000000        0x0 C:\Users\Vex-Laptop02\AppData\Roaming\Intelitek\easyC V4 for Cortex\Temp\OperatorControl.o
 .vfp11_veneer  0x20000000        0x0 C:\Users\Vex-Laptop02\AppData\Roaming\Intelitek\easyC V4 for Cortex\Temp\moveBack.o
 .vfp11_veneer  0x20000000        0x0 C:\Users\Vex-Laptop02\AppData\Roaming\Intelitek\easyC V4 for Cortex\Temp\motorStop.o
 .vfp11_veneer  0x20000000        0x0 C:\Program Files (x86)\Intelitek\easyC V4 for Cortex\#Tools\STM32F103VD\easyCRuntime\easyCRuntimeLib.lib(easyCRuntime.o)
 .vfp11_veneer  0x20000000        0x0 C:\Program Files (x86)\Intelitek\easyC V4 for Cortex\#Tools\STM32F103VD\easyCRuntime\easyCRuntimeLib.lib(Clock.o)
 .vfp11_veneer  0x20000000        0x0 C:\Program Files (x86)\Intelitek\easyC V4 for Cortex\#Tools\STM32F103VD\easyCRuntime\easyCRuntimeLib.lib(Comm.o)
 .vfp11_veneer  0x20000000        0x0 C:\Program Files (x86)\Intelitek\easyC V4 for Cortex\#Tools\STM32F103VD\easyCRuntime\easyCRuntimeLib.lib(Config.o)
 .vfp11_veneer  0x20000000        0x0 C:\Program Files (x86)\Intelitek\easyC V4 for Cortex\#Tools\STM32F103VD\easyCRuntime\easyCRuntimeLib.lib(InputOutput.o)
 .vfp11_veneer  0x20000000        0x0 C:\Program Files (x86)\Intelitek\easyC V4 for Cortex\#Tools\STM32F103VD\easyCRuntime\easyCRuntimeLib.lib(Interrupts.o)
 .vfp11_veneer  0x20000000        0x0 C:\Program Files (x86)\Intelitek\easyC V4 for Cortex\#Tools\STM32F103VD\easyCRuntime\easyCRuntimeLib.lib(Motors.o)
 .vfp11_veneer  0x20000000        0x0 C:\Program Files (x86)\Intelitek\easyC V4 for Cortex\#Tools\STM32F103VD\easyCRuntime\easyCRuntimeLib.lib(OI.o)
 .vfp11_veneer  0x20000000        0x0 C:\Program Files (x86)\Intelitek\easyC V4 for Cortex\#Tools\STM32F103VD\easyCRuntime\easyCRuntimeLib.lib(Print.o)
 .vfp11_veneer  0x20000000        0x0 C:\Program Files (x86)\Intelitek\easyC V4 for Cortex\#Tools\STM32F103VD\easyCRuntime\easyCRuntimeLib.lib(stm32f10x_it.o)
 .vfp11_veneer  0x20000000        0x0 C:\Program Files (x86)\Intelitek\easyC V4 for Cortex\#Tools\STM32F103VD\easyCRuntime\easyCRuntimeLib.lib(ddt_support.o)
 .vfp11_veneer  0x20000000        0x0 C:\Program Files (x86)\Intelitek\easyC V4 for Cortex\#Tools\STM32F103VD\easyCRuntime\easyCRuntimeLib.lib(SerialPorts.o)
 .vfp11_veneer  0x20000000        0x0 C:\Program Files (x86)\Intelitek\easyC V4 for Cortex\#Tools\STM32F103VD\easyCRuntime\easyCRuntimeLib.lib(stm32f10x_adc.o)
 .vfp11_veneer  0x20000000        0x0 C:\Program Files (x86)\Intelitek\easyC V4 for Cortex\#Tools\STM32F103VD\easyCRuntime\easyCRuntimeLib.lib(stm32f10x_dma.o)
 .vfp11_veneer  0x20000000        0x0 C:\Program Files (x86)\Intelitek\easyC V4 for Cortex\#Tools\STM32F103VD\easyCRuntime\easyCRuntimeLib.lib(stm32f10x_exti.o)
 .vfp11_veneer  0x20000000        0x0 C:\Program Files (x86)\Intelitek\easyC V4 for Cortex\#Tools\STM32F103VD\easyCRuntime\easyCRuntimeLib.lib(stm32f10x_flash.o)
 .vfp11_veneer  0x20000000        0x0 C:\Program Files (x86)\Intelitek\easyC V4 for Cortex\#Tools\STM32F103VD\easyCRuntime\easyCRuntimeLib.lib(stm32f10x_gpio.o)
 .vfp11_veneer  0x20000000        0x0 C:\Program Files (x86)\Intelitek\easyC V4 for Cortex\#Tools\STM32F103VD\easyCRuntime\easyCRuntimeLib.lib(stm32f10x_nvic.o)
 .vfp11_veneer  0x20000000        0x0 C:\Program Files (x86)\Intelitek\easyC V4 for Cortex\#Tools\STM32F103VD\easyCRuntime\easyCRuntimeLib.lib(stm32f10x_rcc.o)
 .vfp11_veneer  0x20000000        0x0 C:\Program Files (x86)\Intelitek\easyC V4 for Cortex\#Tools\STM32F103VD\easyCRuntime\easyCRuntimeLib.lib(stm32f10x_spi.o)
 .vfp11_veneer  0x20000000        0x0 C:\Program Files (x86)\Intelitek\easyC V4 for Cortex\#Tools\STM32F103VD\easyCRuntime\easyCRuntimeLib.lib(stm32f10x_systick.o)
 .vfp11_veneer  0x20000000        0x0 C:\Program Files (x86)\Intelitek\easyC V4 for Cortex\#Tools\STM32F103VD\easyCRuntime\easyCRuntimeLib.lib(stm32f10x_tim.o)
 .vfp11_veneer  0x20000000        0x0 C:\Program Files (x86)\Intelitek\easyC V4 for Cortex\#Tools\STM32F103VD\easyCRuntime\easyCRuntimeLib.lib(stm32f10x_usart.o)
 .vfp11_veneer  0x20000000        0x0 C:\Program Files (x86)\Intelitek\easyC V4 for Cortex\#Tools\STM32F103VD\easyCRuntime\easyCRuntimeLib.lib(cortexm3_macro.o)
 .vfp11_veneer  0x20000000        0x0 C:\Program Files (x86)\Intelitek\easyC V4 for Cortex\#Tools\STM32F103VD\Link\STM32x_io_putchar_thumb.a(syscalls.o)
 .vfp11_veneer  0x20000000        0x0 C:\Program Files (x86)\Intelitek\easyC V4 for Cortex\#Tools\STM32F103VD\Link\e_stdio_thumb.a(_sp_printf.o)
 .vfp11_veneer  0x20000000        0x0 C:\Program Files (x86)\Intelitek\easyC V4 for Cortex\#Tools\STM32F103VD\Link\e_stdio_thumb.a(_sp_vfprintf.o)
 .vfp11_veneer  0x20000000        0x0 C:\Program Files (x86)\Intelitek\easyC V4 for Cortex\#Tools\STM32F103VD\Link\e_stdio_thumb.a(_sp_puts.o)
 .vfp11_veneer  0x20000000        0x0 C:\Program Files (x86)\Intelitek\easyC V4 for Cortex\#Tools\STM32F103VD\Link\e_stdio_thumb.a(_sp_sprintf.o)
 .vfp11_veneer  0x20000000        0x0 C:\Program Files (x86)\Intelitek\easyC V4 for Cortex\#Tools\STM32F103VD\Link\e_stdio_thumb.a(small_dtoa.o)
 .vfp11_veneer  0x20000000        0x0 C:\Program Files (x86)\Intelitek\easyC V4 for Cortex\#Tools\STM32F103VD\Link\e_stdio_thumb.a(small_wcsrtombs.o)
 .vfp11_veneer  0x20000000        0x0 C:\Program Files (x86)\Intelitek\easyC V4 for Cortex\#Tools\STM32F103VD\Link\e_stdio_thumb.a(small_wcrtomb.o)
 .vfp11_veneer  0x20000000        0x0 C:\Program Files (x86)\Intelitek\easyC V4 for Cortex\#Tools\STM32F103VD\Link\e_stdio_thumb.a(small_mprec.o)

.janus_2cc_veneer
                0x20000000        0x0
 .janus_2cc_veneer
                0x20000000        0x0 C:\Program Files (x86)\Intelitek\easyC V4 for Cortex\#Tools\STM32F103VD\Startup\Startup.o
 .janus_2cc_veneer
                0x20000000        0x0 C:\Users\Vex-Laptop02\AppData\Roaming\Intelitek\easyC V4 for Cortex\Temp\Main.o
 .janus_2cc_veneer
                0x20000000        0x0 C:\Users\Vex-Laptop02\AppData\Roaming\Intelitek\easyC V4 for Cortex\Temp\MainIO.o
 .janus_2cc_veneer
                0x20000000        0x0 C:\Users\Vex-Laptop02\AppData\Roaming\Intelitek\easyC V4 for Cortex\Temp\Globals.o
 .janus_2cc_veneer
                0x20000000        0x0 C:\Users\Vex-Laptop02\AppData\Roaming\Intelitek\easyC V4 for Cortex\Temp\Initialize.o
 .janus_2cc_veneer
                0x20000000        0x0 C:\Users\Vex-Laptop02\AppData\Roaming\Intelitek\easyC V4 for Cortex\Temp\Autonomous.o
 .janus_2cc_veneer
                0x20000000        0x0 C:\Users\Vex-Laptop02\AppData\Roaming\Intelitek\easyC V4 for Cortex\Temp\OperatorControl.o
 .janus_2cc_veneer
                0x20000000        0x0 C:\Users\Vex-Laptop02\AppData\Roaming\Intelitek\easyC V4 for Cortex\Temp\moveBack.o
 .janus_2cc_veneer
                0x20000000        0x0 C:\Users\Vex-Laptop02\AppData\Roaming\Intelitek\easyC V4 for Cortex\Temp\motorStop.o
 .janus_2cc_veneer
                0x20000000        0x0 C:\Program Files (x86)\Intelitek\easyC V4 for Cortex\#Tools\STM32F103VD\easyCRuntime\easyCRuntimeLib.lib(easyCRuntime.o)
 .janus_2cc_veneer
                0x20000000        0x0 C:\Program Files (x86)\Intelitek\easyC V4 for Cortex\#Tools\STM32F103VD\easyCRuntime\easyCRuntimeLib.lib(Clock.o)
 .janus_2cc_veneer
                0x20000000        0x0 C:\Program Files (x86)\Intelitek\easyC V4 for Cortex\#Tools\STM32F103VD\easyCRuntime\easyCRuntimeLib.lib(Comm.o)
 .janus_2cc_veneer
                0x20000000        0x0 C:\Program Files (x86)\Intelitek\easyC V4 for Cortex\#Tools\STM32F103VD\easyCRuntime\easyCRuntimeLib.lib(Config.o)
 .janus_2cc_veneer
                0x20000000        0x0 C:\Program Files (x86)\Intelitek\easyC V4 for Cortex\#Tools\STM32F103VD\easyCRuntime\easyCRuntimeLib.lib(InputOutput.o)
 .janus_2cc_veneer
                0x20000000        0x0 C:\Program Files (x86)\Intelitek\easyC V4 for Cortex\#Tools\STM32F103VD\easyCRuntime\easyCRuntimeLib.lib(Interrupts.o)
 .janus_2cc_veneer
                0x20000000        0x0 C:\Program Files (x86)\Intelitek\easyC V4 for Cortex\#Tools\STM32F103VD\easyCRuntime\easyCRuntimeLib.lib(Motors.o)
 .janus_2cc_veneer
                0x20000000        0x0 C:\Program Files (x86)\Intelitek\easyC V4 for Cortex\#Tools\STM32F103VD\easyCRuntime\easyCRuntimeLib.lib(OI.o)
 .janus_2cc_veneer
                0x20000000        0x0 C:\Program Files (x86)\Intelitek\easyC V4 for Cortex\#Tools\STM32F103VD\easyCRuntime\easyCRuntimeLib.lib(Print.o)
 .janus_2cc_veneer
                0x20000000        0x0 C:\Program Files (x86)\Intelitek\easyC V4 for Cortex\#Tools\STM32F103VD\easyCRuntime\easyCRuntimeLib.lib(stm32f10x_it.o)
 .janus_2cc_veneer
                0x20000000        0x0 C:\Program Files (x86)\Intelitek\easyC V4 for Cortex\#Tools\STM32F103VD\easyCRuntime\easyCRuntimeLib.lib(ddt_support.o)
 .janus_2cc_veneer
                0x20000000        0x0 C:\Program Files (x86)\Intelitek\easyC V4 for Cortex\#Tools\STM32F103VD\easyCRuntime\easyCRuntimeLib.lib(SerialPorts.o)
 .janus_2cc_veneer
                0x20000000        0x0 C:\Program Files (x86)\Intelitek\easyC V4 for Cortex\#Tools\STM32F103VD\easyCRuntime\easyCRuntimeLib.lib(stm32f10x_adc.o)
 .janus_2cc_veneer
                0x20000000        0x0 C:\Program Files (x86)\Intelitek\easyC V4 for Cortex\#Tools\STM32F103VD\easyCRuntime\easyCRuntimeLib.lib(stm32f10x_dma.o)
 .janus_2cc_veneer
                0x20000000        0x0 C:\Program Files (x86)\Intelitek\easyC V4 for Cortex\#Tools\STM32F103VD\easyCRuntime\easyCRuntimeLib.lib(stm32f10x_exti.o)
 .janus_2cc_veneer
                0x20000000        0x0 C:\Program Files (x86)\Intelitek\easyC V4 for Cortex\#Tools\STM32F103VD\easyCRuntime\easyCRuntimeLib.lib(stm32f10x_flash.o)
 .janus_2cc_veneer
                0x20000000        0x0 C:\Program Files (x86)\Intelitek\easyC V4 for Cortex\#Tools\STM32F103VD\easyCRuntime\easyCRuntimeLib.lib(stm32f10x_gpio.o)
 .janus_2cc_veneer
                0x20000000        0x0 C:\Program Files (x86)\Intelitek\easyC V4 for Cortex\#Tools\STM32F103VD\easyCRuntime\easyCRuntimeLib.lib(stm32f10x_nvic.o)
 .janus_2cc_veneer
                0x20000000        0x0 C:\Program Files (x86)\Intelitek\easyC V4 for Cortex\#Tools\STM32F103VD\easyCRuntime\easyCRuntimeLib.lib(stm32f10x_rcc.o)
 .janus_2cc_veneer
                0x20000000        0x0 C:\Program Files (x86)\Intelitek\easyC V4 for Cortex\#Tools\STM32F103VD\easyCRuntime\easyCRuntimeLib.lib(stm32f10x_spi.o)
 .janus_2cc_veneer
                0x20000000        0x0 C:\Program Files (x86)\Intelitek\easyC V4 for Cortex\#Tools\STM32F103VD\easyCRuntime\easyCRuntimeLib.lib(stm32f10x_systick.o)
 .janus_2cc_veneer
                0x20000000        0x0 C:\Program Files (x86)\Intelitek\easyC V4 for Cortex\#Tools\STM32F103VD\easyCRuntime\easyCRuntimeLib.lib(stm32f10x_tim.o)
 .janus_2cc_veneer
                0x20000000        0x0 C:\Program Files (x86)\Intelitek\easyC V4 for Cortex\#Tools\STM32F103VD\easyCRuntime\easyCRuntimeLib.lib(stm32f10x_usart.o)
 .janus_2cc_veneer
                0x20000000        0x0 C:\Program Files (x86)\Intelitek\easyC V4 for Cortex\#Tools\STM32F103VD\easyCRuntime\easyCRuntimeLib.lib(cortexm3_macro.o)
 .janus_2cc_veneer
                0x20000000        0x0 C:\Program Files (x86)\Intelitek\easyC V4 for Cortex\#Tools\STM32F103VD\Link\STM32x_io_putchar_thumb.a(syscalls.o)
 .janus_2cc_veneer
                0x20000000        0x0 C:\Program Files (x86)\Intelitek\easyC V4 for Cortex\#Tools\STM32F103VD\Link\e_stdio_thumb.a(_sp_printf.o)
 .janus_2cc_veneer
                0x20000000        0x0 C:\Program Files (x86)\Intelitek\easyC V4 for Cortex\#Tools\STM32F103VD\Link\e_stdio_thumb.a(_sp_vfprintf.o)
 .janus_2cc_veneer
                0x20000000        0x0 C:\Program Files (x86)\Intelitek\easyC V4 for Cortex\#Tools\STM32F103VD\Link\e_stdio_thumb.a(_sp_puts.o)
 .janus_2cc_veneer
                0x20000000        0x0 C:\Program Files (x86)\Intelitek\easyC V4 for Cortex\#Tools\STM32F103VD\Link\e_stdio_thumb.a(_sp_sprintf.o)
 .janus_2cc_veneer
                0x20000000        0x0 C:\Program Files (x86)\Intelitek\easyC V4 for Cortex\#Tools\STM32F103VD\Link\e_stdio_thumb.a(small_dtoa.o)
 .janus_2cc_veneer
                0x20000000        0x0 C:\Program Files (x86)\Intelitek\easyC V4 for Cortex\#Tools\STM32F103VD\Link\e_stdio_thumb.a(small_wcsrtombs.o)
 .janus_2cc_veneer
                0x20000000        0x0 C:\Program Files (x86)\Intelitek\easyC V4 for Cortex\#Tools\STM32F103VD\Link\e_stdio_thumb.a(small_wcrtomb.o)
 .janus_2cc_veneer
                0x20000000        0x0 C:\Program Files (x86)\Intelitek\easyC V4 for Cortex\#Tools\STM32F103VD\Link\e_stdio_thumb.a(small_mprec.o)

.v4_bx          0x20000000        0x0
 .v4_bx         0x20000000        0x0 C:\Program Files (x86)\Intelitek\easyC V4 for Cortex\#Tools\STM32F103VD\Startup\Startup.o
 .v4_bx         0x20000000        0x0 C:\Users\Vex-Laptop02\AppData\Roaming\Intelitek\easyC V4 for Cortex\Temp\Main.o
 .v4_bx         0x20000000        0x0 C:\Users\Vex-Laptop02\AppData\Roaming\Intelitek\easyC V4 for Cortex\Temp\MainIO.o
 .v4_bx         0x20000000        0x0 C:\Users\Vex-Laptop02\AppData\Roaming\Intelitek\easyC V4 for Cortex\Temp\Globals.o
 .v4_bx         0x20000000        0x0 C:\Users\Vex-Laptop02\AppData\Roaming\Intelitek\easyC V4 for Cortex\Temp\Initialize.o
 .v4_bx         0x20000000        0x0 C:\Users\Vex-Laptop02\AppData\Roaming\Intelitek\easyC V4 for Cortex\Temp\Autonomous.o
 .v4_bx         0x20000000        0x0 C:\Users\Vex-Laptop02\AppData\Roaming\Intelitek\easyC V4 for Cortex\Temp\OperatorControl.o
 .v4_bx         0x20000000        0x0 C:\Users\Vex-Laptop02\AppData\Roaming\Intelitek\easyC V4 for Cortex\Temp\moveBack.o
 .v4_bx         0x20000000        0x0 C:\Users\Vex-Laptop02\AppData\Roaming\Intelitek\easyC V4 for Cortex\Temp\motorStop.o
 .v4_bx         0x20000000        0x0 C:\Program Files (x86)\Intelitek\easyC V4 for Cortex\#Tools\STM32F103VD\easyCRuntime\easyCRuntimeLib.lib(easyCRuntime.o)
 .v4_bx         0x20000000        0x0 C:\Program Files (x86)\Intelitek\easyC V4 for Cortex\#Tools\STM32F103VD\easyCRuntime\easyCRuntimeLib.lib(Clock.o)
 .v4_bx         0x20000000        0x0 C:\Program Files (x86)\Intelitek\easyC V4 for Cortex\#Tools\STM32F103VD\easyCRuntime\easyCRuntimeLib.lib(Comm.o)
 .v4_bx         0x20000000        0x0 C:\Program Files (x86)\Intelitek\easyC V4 for Cortex\#Tools\STM32F103VD\easyCRuntime\easyCRuntimeLib.lib(Config.o)
 .v4_bx         0x20000000        0x0 C:\Program Files (x86)\Intelitek\easyC V4 for Cortex\#Tools\STM32F103VD\easyCRuntime\easyCRuntimeLib.lib(InputOutput.o)
 .v4_bx         0x20000000        0x0 C:\Program Files (x86)\Intelitek\easyC V4 for Cortex\#Tools\STM32F103VD\easyCRuntime\easyCRuntimeLib.lib(Interrupts.o)
 .v4_bx         0x20000000        0x0 C:\Program Files (x86)\Intelitek\easyC V4 for Cortex\#Tools\STM32F103VD\easyCRuntime\easyCRuntimeLib.lib(Motors.o)
 .v4_bx         0x20000000        0x0 C:\Program Files (x86)\Intelitek\easyC V4 for Cortex\#Tools\STM32F103VD\easyCRuntime\easyCRuntimeLib.lib(OI.o)
 .v4_bx         0x20000000        0x0 C:\Program Files (x86)\Intelitek\easyC V4 for Cortex\#Tools\STM32F103VD\easyCRuntime\easyCRuntimeLib.lib(Print.o)
 .v4_bx         0x20000000        0x0 C:\Program Files (x86)\Intelitek\easyC V4 for Cortex\#Tools\STM32F103VD\easyCRuntime\easyCRuntimeLib.lib(stm32f10x_it.o)
 .v4_bx         0x20000000        0x0 C:\Program Files (x86)\Intelitek\easyC V4 for Cortex\#Tools\STM32F103VD\easyCRuntime\easyCRuntimeLib.lib(ddt_support.o)
 .v4_bx         0x20000000        0x0 C:\Program Files (x86)\Intelitek\easyC V4 for Cortex\#Tools\STM32F103VD\easyCRuntime\easyCRuntimeLib.lib(SerialPorts.o)
 .v4_bx         0x20000000        0x0 C:\Program Files (x86)\Intelitek\easyC V4 for Cortex\#Tools\STM32F103VD\easyCRuntime\easyCRuntimeLib.lib(stm32f10x_adc.o)
 .v4_bx         0x20000000        0x0 C:\Program Files (x86)\Intelitek\easyC V4 for Cortex\#Tools\STM32F103VD\easyCRuntime\easyCRuntimeLib.lib(stm32f10x_dma.o)
 .v4_bx         0x20000000        0x0 C:\Program Files (x86)\Intelitek\easyC V4 for Cortex\#Tools\STM32F103VD\easyCRuntime\easyCRuntimeLib.lib(stm32f10x_exti.o)
 .v4_bx         0x20000000        0x0 C:\Program Files (x86)\Intelitek\easyC V4 for Cortex\#Tools\STM32F103VD\easyCRuntime\easyCRuntimeLib.lib(stm32f10x_flash.o)
 .v4_bx         0x20000000        0x0 C:\Program Files (x86)\Intelitek\easyC V4 for Cortex\#Tools\STM32F103VD\easyCRuntime\easyCRuntimeLib.lib(stm32f10x_gpio.o)
 .v4_bx         0x20000000        0x0 C:\Program Files (x86)\Intelitek\easyC V4 for Cortex\#Tools\STM32F103VD\easyCRuntime\easyCRuntimeLib.lib(stm32f10x_nvic.o)
 .v4_bx         0x20000000        0x0 C:\Program Files (x86)\Intelitek\easyC V4 for Cortex\#Tools\STM32F103VD\easyCRuntime\easyCRuntimeLib.lib(stm32f10x_rcc.o)
 .v4_bx         0x20000000        0x0 C:\Program Files (x86)\Intelitek\easyC V4 for Cortex\#Tools\STM32F103VD\easyCRuntime\easyCRuntimeLib.lib(stm32f10x_spi.o)
 .v4_bx         0x20000000        0x0 C:\Program Files (x86)\Intelitek\easyC V4 for Cortex\#Tools\STM32F103VD\easyCRuntime\easyCRuntimeLib.lib(stm32f10x_systick.o)
 .v4_bx         0x20000000        0x0 C:\Program Files (x86)\Intelitek\easyC V4 for Cortex\#Tools\STM32F103VD\easyCRuntime\easyCRuntimeLib.lib(stm32f10x_tim.o)
 .v4_bx         0x20000000        0x0 C:\Program Files (x86)\Intelitek\easyC V4 for Cortex\#Tools\STM32F103VD\easyCRuntime\easyCRuntimeLib.lib(stm32f10x_usart.o)
 .v4_bx         0x20000000        0x0 C:\Program Files (x86)\Intelitek\easyC V4 for Cortex\#Tools\STM32F103VD\easyCRuntime\easyCRuntimeLib.lib(cortexm3_macro.o)
 .v4_bx         0x20000000        0x0 C:\Program Files (x86)\Intelitek\easyC V4 for Cortex\#Tools\STM32F103VD\Link\STM32x_io_putchar_thumb.a(syscalls.o)
 .v4_bx         0x20000000        0x0 C:\Program Files (x86)\Intelitek\easyC V4 for Cortex\#Tools\STM32F103VD\Link\e_stdio_thumb.a(_sp_printf.o)
 .v4_bx         0x20000000        0x0 C:\Program Files (x86)\Intelitek\easyC V4 for Cortex\#Tools\STM32F103VD\Link\e_stdio_thumb.a(_sp_vfprintf.o)
 .v4_bx         0x20000000        0x0 C:\Program Files (x86)\Intelitek\easyC V4 for Cortex\#Tools\STM32F103VD\Link\e_stdio_thumb.a(_sp_puts.o)
 .v4_bx         0x20000000        0x0 C:\Program Files (x86)\Intelitek\easyC V4 for Cortex\#Tools\STM32F103VD\Link\e_stdio_thumb.a(_sp_sprintf.o)
 .v4_bx         0x20000000        0x0 C:\Program Files (x86)\Intelitek\easyC V4 for Cortex\#Tools\STM32F103VD\Link\e_stdio_thumb.a(small_dtoa.o)
 .v4_bx         0x20000000        0x0 C:\Program Files (x86)\Intelitek\easyC V4 for Cortex\#Tools\STM32F103VD\Link\e_stdio_thumb.a(small_wcsrtombs.o)
 .v4_bx         0x20000000        0x0 C:\Program Files (x86)\Intelitek\easyC V4 for Cortex\#Tools\STM32F103VD\Link\e_stdio_thumb.a(small_wcrtomb.o)
 .v4_bx         0x20000000        0x0 C:\Program Files (x86)\Intelitek\easyC V4 for Cortex\#Tools\STM32F103VD\Link\e_stdio_thumb.a(small_mprec.o)

.data           0x20000000      0x1a8 load address 0x0800bbac
                0x20000000                . = ALIGN (0x4)
                0x20000000                _sdata = .
 *(.data)
 .data          0x20000000        0x8 C:\Program Files (x86)\Intelitek\easyC V4 for Cortex\#Tools\STM32F103VD\easyCRuntime\easyCRuntimeLib.lib(Comm.o)
                0x20000000                tx_restart1
 .data          0x20000008       0x84 C:\Program Files (x86)\Intelitek\easyC V4 for Cortex\#Tools\STM32F103VD\easyCRuntime\easyCRuntimeLib.lib(InputOutput.o)
                0x2000007d                ain_ports
                0x20000008                dio_gpios
                0x20000070                dio_config
 .data          0x2000008c        0xd C:\Program Files (x86)\Intelitek\easyC V4 for Cortex\#Tools\STM32F103VD\easyCRuntime\easyCRuntimeLib.lib(Interrupts.o)
 .data          0x20000099       0x18 C:\Program Files (x86)\Intelitek\easyC V4 for Cortex\#Tools\STM32F103VD\easyCRuntime\easyCRuntimeLib.lib(OI.o)
 *fill*         0x200000b1        0x3 00
 .data          0x200000b4       0xf4 c:/program files (x86)/intelitek/easyc v4 for cortex/#tools/arm-gcc/bin/../lib/gcc/arm-none-eabi/4.3.2/../../../../arm-none-eabi/lib/thumb2\libc.a(lib_a-impure.o)
                0x200000b4                _impure_ptr
 *(.data.*)
 *(.RAMtext)
                0x200001a8                . = ALIGN (0x4)
                0x200001a8                _edata = .

.bss            0x200001a8      0x634 load address 0x0800bd54
                0x200001a8                . = ALIGN (0x4)
                0x200001a8                _sbss = .
 *(.bss)
 .bss           0x200001a8       0x74 C:\Program Files (x86)\Intelitek\easyC V4 for Cortex\#Tools\STM32F103VD\Startup\Startup.o
                0x200001b8                _gameStartTime
                0x200001a8                _mcu_initialized
                0x200001ac                _competitionMode
                0x200001b4                _operatorTime
                0x200001a9                _competitionMaster
                0x200001bd                _is_initialize
                0x200001bc                _startCompTemplate
                0x200001c8                g_ulGlobalData
                0x200001c4                previousEnabled
                0x200001b0                _autonomousMode
                0x200001c0                previousAutonomous
 .bss           0x2000021c        0x2 C:\Program Files (x86)\Intelitek\easyC V4 for Cortex\#Tools\STM32F103VD\easyCRuntime\easyCRuntimeLib.lib(easyCRuntime.o)
                0x2000021d                _is_globaldata__
                0x2000021c                _debug_info__
 *fill*         0x2000021e        0x2 00
 .bss           0x20000220       0x80 C:\Program Files (x86)\Intelitek\easyC V4 for Cortex\#Tools\STM32F103VD\easyCRuntime\easyCRuntimeLib.lib(Clock.o)
                0x20000227                pwmStatusFlags
                0x20000224                pwm2Index
                0x20000222                pwm1Index
                0x20000220                capture
                0x20000226                updateMaster
 .bss           0x200002a0      0x220 C:\Program Files (x86)\Intelitek\easyC V4 for Cortex\#Tools\STM32F103VD\easyCRuntime\easyCRuntimeLib.lib(Comm.o)
                0x200004bc                usartPort
                0x200002a9                rx1Timeout
                0x200003b4                tbuf1
                0x200002ac                rbuf1
                0x200002ab                systemStateFlags
                0x200002a4                masterPtr
                0x200002a8                dataFromPC
                0x200002a0                slavePtr
                0x200002aa                rx2Timeout
                0x200004bd                crystalActive
 .bss           0x200004c0       0x10 C:\Program Files (x86)\Intelitek\easyC V4 for Cortex\#Tools\STM32F103VD\easyCRuntime\easyCRuntimeLib.lib(InputOutput.o)
                0x200004c0                ain_adc
 .bss           0x200004d0       0x44 C:\Program Files (x86)\Intelitek\easyC V4 for Cortex\#Tools\STM32F103VD\easyCRuntime\easyCRuntimeLib.lib(Interrupts.o)
                0x200004d0                int_handler
 .bss           0x20000514       0x2c C:\Program Files (x86)\Intelitek\easyC V4 for Cortex\#Tools\STM32F103VD\easyCRuntime\easyCRuntimeLib.lib(Motors.o)
                0x20000514                ucLastSwData
 .bss           0x20000540        0x1 C:\Program Files (x86)\Intelitek\easyC V4 for Cortex\#Tools\STM32F103VD\easyCRuntime\easyCRuntimeLib.lib(stm32f10x_it.o)
 .bss           0x20000541       0x10 C:\Program Files (x86)\Intelitek\easyC V4 for Cortex\#Tools\STM32F103VD\easyCRuntime\easyCRuntimeLib.lib(ddt_support.o)
 *fill*         0x20000551        0x3 00
 .bss           0x20000554      0x118 C:\Program Files (x86)\Intelitek\easyC V4 for Cortex\#Tools\STM32F103VD\easyCRuntime\easyCRuntimeLib.lib(SerialPorts.o)
                0x2000056b                latchButtonData
                0x20000568                buttonData
 *(COMMON)
 COMMON         0x2000066c        0x8 C:\Program Files (x86)\Intelitek\easyC V4 for Cortex\#Tools\STM32F103VD\easyCRuntime\easyCRuntimeLib.lib(easyCRuntime.o)
                0x2000066c                szTeamInfo
 COMMON         0x20000674       0x50 C:\Program Files (x86)\Intelitek\easyC V4 for Cortex\#Tools\STM32F103VD\easyCRuntime\easyCRuntimeLib.lib(Clock.o)
                0x20000674                pwm1
                0x2000069c                pwm2
 COMMON         0x200006c4      0x118 C:\Program Files (x86)\Intelitek\easyC V4 for Cortex\#Tools\STM32F103VD\easyCRuntime\easyCRuntimeLib.lib(Comm.o)
                0x200006c4                slaveJoystick1
                0x200006d0                rx1
                0x20000710                rx2
                0x20000750                SPI1_Buffer_Tx
                0x20000790                SPI1_Buffer_Rx
                0x200007d0                slaveJoystick2
                0x200007dc                . = ALIGN (0x4)
                0x200007dc                _ebss = .
                0x200007dc                PROVIDE (end, _ebss)
                0x200007dc                PROVIDE (_end, _ebss)

._usrstack      0x200007dc      0x100 load address 0x0800c388
                0x200007dc                . = ALIGN (0x4)
                0x200007dc                _susrstack = .
                0x200008dc                . = (. + _Minimum_Stack_Size)
 *fill*         0x200007dc      0x100 00
                0x200008dc                . = ALIGN (0x4)
                0x200008dc                _eusrstack = .

.b1text
 *(.b1text)
 *(.b1rodata)
 *(.b1rodata*)

.eb0text
 *(.eb0text)
 *(.eb0rodata)
 *(.eb0rodata*)

.eb1text
 *(.eb1text)
 *(.eb1rodata)
 *(.eb1rodata*)

.eb2text
 *(.eb2text)
 *(.eb2rodata)
 *(.eb2rodata*)

.eb3text
 *(.eb3text)
 *(.eb3rodata)
 *(.eb3rodata*)
                0x200008dc                __exidx_start = .
                0x200008dc                __exidx_end = .

/DISCARD/
 libc.a(*)
 libm.a(*)
 libgcc.a(*)

.stab
 *(.stab)

.stabstr
 *(.stabstr)

.stab.excl
 *(.stab.excl)

.stab.exclstr
 *(.stab.exclstr)

.stab.index
 *(.stab.index)

.stab.indexstr
 *(.stab.indexstr)

.comment        0x00000000      0x7d3
 *(.comment)
 .comment       0x00000000       0x2a C:\Program Files (x86)\Intelitek\easyC V4 for Cortex\#Tools\STM32F103VD\Startup\Startup.o
 .comment       0x0000002a       0x2a C:\Users\Vex-Laptop02\AppData\Roaming\Intelitek\easyC V4 for Cortex\Temp\Main.o
 .comment       0x00000054       0x2a C:\Users\Vex-Laptop02\AppData\Roaming\Intelitek\easyC V4 for Cortex\Temp\MainIO.o
 .comment       0x0000007e       0x2a C:\Users\Vex-Laptop02\AppData\Roaming\Intelitek\easyC V4 for Cortex\Temp\Globals.o
 .comment       0x000000a8       0x2a C:\Users\Vex-Laptop02\AppData\Roaming\Intelitek\easyC V4 for Cortex\Temp\Initialize.o
 .comment       0x000000d2       0x2a C:\Users\Vex-Laptop02\AppData\Roaming\Intelitek\easyC V4 for Cortex\Temp\Autonomous.o
 .comment       0x000000fc       0x2a C:\Users\Vex-Laptop02\AppData\Roaming\Intelitek\easyC V4 for Cortex\Temp\OperatorControl.o
 .comment       0x00000126       0x2a C:\Users\Vex-Laptop02\AppData\Roaming\Intelitek\easyC V4 for Cortex\Temp\moveBack.o
 .comment       0x00000150       0x2a C:\Users\Vex-Laptop02\AppData\Roaming\Intelitek\easyC V4 for Cortex\Temp\motorStop.o
 .comment       0x0000017a       0x2a C:\Program Files (x86)\Intelitek\easyC V4 for Cortex\#Tools\STM32F103VD\easyCRuntime\easyCRuntimeLib.lib(easyCRuntime.o)
 .comment       0x000001a4       0x2a C:\Program Files (x86)\Intelitek\easyC V4 for Cortex\#Tools\STM32F103VD\easyCRuntime\easyCRuntimeLib.lib(Clock.o)
 .comment       0x000001ce       0x2a C:\Program Files (x86)\Intelitek\easyC V4 for Cortex\#Tools\STM32F103VD\easyCRuntime\easyCRuntimeLib.lib(Comm.o)
 .comment       0x000001f8       0x2a C:\Program Files (x86)\Intelitek\easyC V4 for Cortex\#Tools\STM32F103VD\easyCRuntime\easyCRuntimeLib.lib(Config.o)
 .comment       0x00000222       0x2a C:\Program Files (x86)\Intelitek\easyC V4 for Cortex\#Tools\STM32F103VD\easyCRuntime\easyCRuntimeLib.lib(InputOutput.o)
 .comment       0x0000024c       0x2a C:\Program Files (x86)\Intelitek\easyC V4 for Cortex\#Tools\STM32F103VD\easyCRuntime\easyCRuntimeLib.lib(Interrupts.o)
 .comment       0x00000276       0x2a C:\Program Files (x86)\Intelitek\easyC V4 for Cortex\#Tools\STM32F103VD\easyCRuntime\easyCRuntimeLib.lib(Motors.o)
 .comment       0x000002a0       0x2a C:\Program Files (x86)\Intelitek\easyC V4 for Cortex\#Tools\STM32F103VD\easyCRuntime\easyCRuntimeLib.lib(OI.o)
 .comment       0x000002ca       0x2a C:\Program Files (x86)\Intelitek\easyC V4 for Cortex\#Tools\STM32F103VD\easyCRuntime\easyCRuntimeLib.lib(Print.o)
 .comment       0x000002f4       0x2a C:\Program Files (x86)\Intelitek\easyC V4 for Cortex\#Tools\STM32F103VD\easyCRuntime\easyCRuntimeLib.lib(stm32f10x_it.o)
 .comment       0x0000031e       0x2a C:\Program Files (x86)\Intelitek\easyC V4 for Cortex\#Tools\STM32F103VD\easyCRuntime\easyCRuntimeLib.lib(ddt_support.o)
 .comment       0x00000348       0x2a C:\Program Files (x86)\Intelitek\easyC V4 for Cortex\#Tools\STM32F103VD\easyCRuntime\easyCRuntimeLib.lib(SerialPorts.o)
 .comment       0x00000372       0x2a C:\Program Files (x86)\Intelitek\easyC V4 for Cortex\#Tools\STM32F103VD\easyCRuntime\easyCRuntimeLib.lib(stm32f10x_adc.o)
 .comment       0x0000039c       0x2a C:\Program Files (x86)\Intelitek\easyC V4 for Cortex\#Tools\STM32F103VD\easyCRuntime\easyCRuntimeLib.lib(stm32f10x_dma.o)
 .comment       0x000003c6       0x2a C:\Program Files (x86)\Intelitek\easyC V4 for Cortex\#Tools\STM32F103VD\easyCRuntime\easyCRuntimeLib.lib(stm32f10x_exti.o)
 .comment       0x000003f0       0x2a C:\Program Files (x86)\Intelitek\easyC V4 for Cortex\#Tools\STM32F103VD\easyCRuntime\easyCRuntimeLib.lib(stm32f10x_flash.o)
 .comment       0x0000041a       0x2a C:\Program Files (x86)\Intelitek\easyC V4 for Cortex\#Tools\STM32F103VD\easyCRuntime\easyCRuntimeLib.lib(stm32f10x_gpio.o)
 .comment       0x00000444       0x2a C:\Program Files (x86)\Intelitek\easyC V4 for Cortex\#Tools\STM32F103VD\easyCRuntime\easyCRuntimeLib.lib(stm32f10x_nvic.o)
 .comment       0x0000046e       0x2a C:\Program Files (x86)\Intelitek\easyC V4 for Cortex\#Tools\STM32F103VD\easyCRuntime\easyCRuntimeLib.lib(stm32f10x_rcc.o)
 .comment       0x00000498       0x2a C:\Program Files (x86)\Intelitek\easyC V4 for Cortex\#Tools\STM32F103VD\easyCRuntime\easyCRuntimeLib.lib(stm32f10x_spi.o)
 .comment       0x000004c2       0x2a C:\Program Files (x86)\Intelitek\easyC V4 for Cortex\#Tools\STM32F103VD\easyCRuntime\easyCRuntimeLib.lib(stm32f10x_systick.o)
 .comment       0x000004ec       0x2a C:\Program Files (x86)\Intelitek\easyC V4 for Cortex\#Tools\STM32F103VD\easyCRuntime\easyCRuntimeLib.lib(stm32f10x_tim.o)
 .comment       0x00000516       0x2a C:\Program Files (x86)\Intelitek\easyC V4 for Cortex\#Tools\STM32F103VD\easyCRuntime\easyCRuntimeLib.lib(stm32f10x_usart.o)
 .comment       0x00000540       0x2b C:\Program Files (x86)\Intelitek\easyC V4 for Cortex\#Tools\STM32F103VD\Link\STM32x_io_putchar_thumb.a(syscalls.o)
 .comment       0x0000056b       0x4d C:\Program Files (x86)\Intelitek\easyC V4 for Cortex\#Tools\STM32F103VD\Link\e_stdio_thumb.a(_sp_printf.o)
 .comment       0x000005b8       0x4d C:\Program Files (x86)\Intelitek\easyC V4 for Cortex\#Tools\STM32F103VD\Link\e_stdio_thumb.a(_sp_vfprintf.o)
 .comment       0x00000605       0x4d C:\Program Files (x86)\Intelitek\easyC V4 for Cortex\#Tools\STM32F103VD\Link\e_stdio_thumb.a(_sp_puts.o)
 .comment       0x00000652       0x4d C:\Program Files (x86)\Intelitek\easyC V4 for Cortex\#Tools\STM32F103VD\Link\e_stdio_thumb.a(_sp_sprintf.o)
 .comment       0x0000069f       0x4d C:\Program Files (x86)\Intelitek\easyC V4 for Cortex\#Tools\STM32F103VD\Link\e_stdio_thumb.a(small_dtoa.o)
 .comment       0x000006ec       0x4d C:\Program Files (x86)\Intelitek\easyC V4 for Cortex\#Tools\STM32F103VD\Link\e_stdio_thumb.a(small_wcsrtombs.o)
 .comment       0x00000739       0x4d C:\Program Files (x86)\Intelitek\easyC V4 for Cortex\#Tools\STM32F103VD\Link\e_stdio_thumb.a(small_wcrtomb.o)
 .comment       0x00000786       0x4d C:\Program Files (x86)\Intelitek\easyC V4 for Cortex\#Tools\STM32F103VD\Link\e_stdio_thumb.a(small_mprec.o)

.debug
 *(.debug)

.line
 *(.line)

.debug_srcinfo
 *(.debug_srcinfo)

.debug_sfnames
 *(.debug_sfnames)

.debug_aranges
 *(.debug_aranges)

.debug_pubnames
 *(.debug_pubnames)

.debug_info
 *(.debug_info .gnu.linkonce.wi.*)

.debug_abbrev
 *(.debug_abbrev)

.debug_line
 *(.debug_line)

.debug_frame
 *(.debug_frame)

.debug_str
 *(.debug_str)

.debug_loc
 *(.debug_loc)

.debug_macinfo
 *(.debug_macinfo)

.debug_weaknames
 *(.debug_weaknames)

.debug_funcnames
 *(.debug_funcnames)

.debug_typenames
 *(.debug_typenames)

.debug_varnames
 *(.debug_varnames)
START GROUP
LOAD c:/program files (x86)/intelitek/easyc v4 for cortex/#tools/arm-gcc/bin/../lib/gcc/arm-none-eabi/4.3.2/thumb2\libgcc.a
LOAD c:/program files (x86)/intelitek/easyc v4 for cortex/#tools/arm-gcc/bin/../lib/gcc/arm-none-eabi/4.3.2/../../../../arm-none-eabi/lib/thumb2\libc.a
END GROUP
OUTPUT(easyCRuntime.elf elf32-littlearm)

.ARM.attributes
                0x00000000       0x31
 .ARM.attributes
                0x00000000       0x31 C:\Program Files (x86)\Intelitek\easyC V4 for Cortex\#Tools\STM32F103VD\Startup\Startup.o
 .ARM.attributes
                0x00000031       0x31 C:\Users\Vex-Laptop02\AppData\Roaming\Intelitek\easyC V4 for Cortex\Temp\Main.o
 .ARM.attributes
                0x00000062       0x31 C:\Users\Vex-Laptop02\AppData\Roaming\Intelitek\easyC V4 for Cortex\Temp\MainIO.o
 .ARM.attributes
                0x00000093       0x2f C:\Users\Vex-Laptop02\AppData\Roaming\Intelitek\easyC V4 for Cortex\Temp\Globals.o
 .ARM.attributes
                0x000000c2       0x31 C:\Users\Vex-Laptop02\AppData\Roaming\Intelitek\easyC V4 for Cortex\Temp\Initialize.o
 .ARM.attributes
                0x000000f3       0x31 C:\Users\Vex-Laptop02\AppData\Roaming\Intelitek\easyC V4 for Cortex\Temp\Autonomous.o
 .ARM.attributes
                0x00000124       0x31 C:\Users\Vex-Laptop02\AppData\Roaming\Intelitek\easyC V4 for Cortex\Temp\OperatorControl.o
 .ARM.attributes
                0x00000155       0x31 C:\Users\Vex-Laptop02\AppData\Roaming\Intelitek\easyC V4 for Cortex\Temp\moveBack.o
 .ARM.attributes
                0x00000186       0x31 C:\Users\Vex-Laptop02\AppData\Roaming\Intelitek\easyC V4 for Cortex\Temp\motorStop.o
 .ARM.attributes
                0x000001b7       0x31 C:\Program Files (x86)\Intelitek\easyC V4 for Cortex\#Tools\STM32F103VD\easyCRuntime\easyCRuntimeLib.lib(easyCRuntime.o)
 .ARM.attributes
                0x000001e8       0x31 C:\Program Files (x86)\Intelitek\easyC V4 for Cortex\#Tools\STM32F103VD\easyCRuntime\easyCRuntimeLib.lib(Clock.o)
 .ARM.attributes
                0x00000219       0x31 C:\Program Files (x86)\Intelitek\easyC V4 for Cortex\#Tools\STM32F103VD\easyCRuntime\easyCRuntimeLib.lib(Comm.o)
 .ARM.attributes
                0x0000024a       0x31 C:\Program Files (x86)\Intelitek\easyC V4 for Cortex\#Tools\STM32F103VD\easyCRuntime\easyCRuntimeLib.lib(Config.o)
 .ARM.attributes
                0x0000027b       0x31 C:\Program Files (x86)\Intelitek\easyC V4 for Cortex\#Tools\STM32F103VD\easyCRuntime\easyCRuntimeLib.lib(InputOutput.o)
 .ARM.attributes
                0x000002ac       0x31 C:\Program Files (x86)\Intelitek\easyC V4 for Cortex\#Tools\STM32F103VD\easyCRuntime\easyCRuntimeLib.lib(Interrupts.o)
 .ARM.attributes
                0x000002dd       0x31 C:\Program Files (x86)\Intelitek\easyC V4 for Cortex\#Tools\STM32F103VD\easyCRuntime\easyCRuntimeLib.lib(Motors.o)
 .ARM.attributes
                0x0000030e       0x31 C:\Program Files (x86)\Intelitek\easyC V4 for Cortex\#Tools\STM32F103VD\easyCRuntime\easyCRuntimeLib.lib(OI.o)
 .ARM.attributes
                0x0000033f       0x31 C:\Program Files (x86)\Intelitek\easyC V4 for Cortex\#Tools\STM32F103VD\easyCRuntime\easyCRuntimeLib.lib(Print.o)
 .ARM.attributes
                0x00000370       0x31 C:\Program Files (x86)\Intelitek\easyC V4 for Cortex\#Tools\STM32F103VD\easyCRuntime\easyCRuntimeLib.lib(stm32f10x_it.o)
 .ARM.attributes
                0x000003a1       0x31 C:\Program Files (x86)\Intelitek\easyC V4 for Cortex\#Tools\STM32F103VD\easyCRuntime\easyCRuntimeLib.lib(ddt_support.o)
 .ARM.attributes
                0x000003d2       0x31 C:\Program Files (x86)\Intelitek\easyC V4 for Cortex\#Tools\STM32F103VD\easyCRuntime\easyCRuntimeLib.lib(SerialPorts.o)
 .ARM.attributes
                0x00000403       0x31 C:\Program Files (x86)\Intelitek\easyC V4 for Cortex\#Tools\STM32F103VD\easyCRuntime\easyCRuntimeLib.lib(stm32f10x_adc.o)
 .ARM.attributes
                0x00000434       0x31 C:\Program Files (x86)\Intelitek\easyC V4 for Cortex\#Tools\STM32F103VD\easyCRuntime\easyCRuntimeLib.lib(stm32f10x_dma.o)
 .ARM.attributes
                0x00000465       0x31 C:\Program Files (x86)\Intelitek\easyC V4 for Cortex\#Tools\STM32F103VD\easyCRuntime\easyCRuntimeLib.lib(stm32f10x_exti.o)
 .ARM.attributes
                0x00000496       0x31 C:\Program Files (x86)\Intelitek\easyC V4 for Cortex\#Tools\STM32F103VD\easyCRuntime\easyCRuntimeLib.lib(stm32f10x_flash.o)
 .ARM.attributes
                0x000004c7       0x31 C:\Program Files (x86)\Intelitek\easyC V4 for Cortex\#Tools\STM32F103VD\easyCRuntime\easyCRuntimeLib.lib(stm32f10x_gpio.o)
 .ARM.attributes
                0x000004f8       0x31 C:\Program Files (x86)\Intelitek\easyC V4 for Cortex\#Tools\STM32F103VD\easyCRuntime\easyCRuntimeLib.lib(stm32f10x_nvic.o)
 .ARM.attributes
                0x00000529       0x31 C:\Program Files (x86)\Intelitek\easyC V4 for Cortex\#Tools\STM32F103VD\easyCRuntime\easyCRuntimeLib.lib(stm32f10x_rcc.o)
 .ARM.attributes
                0x0000055a       0x31 C:\Program Files (x86)\Intelitek\easyC V4 for Cortex\#Tools\STM32F103VD\easyCRuntime\easyCRuntimeLib.lib(stm32f10x_spi.o)
 .ARM.attributes
                0x0000058b       0x31 C:\Program Files (x86)\Intelitek\easyC V4 for Cortex\#Tools\STM32F103VD\easyCRuntime\easyCRuntimeLib.lib(stm32f10x_systick.o)
 .ARM.attributes
                0x000005bc       0x31 C:\Program Files (x86)\Intelitek\easyC V4 for Cortex\#Tools\STM32F103VD\easyCRuntime\easyCRuntimeLib.lib(stm32f10x_tim.o)
 .ARM.attributes
                0x000005ed       0x31 C:\Program Files (x86)\Intelitek\easyC V4 for Cortex\#Tools\STM32F103VD\easyCRuntime\easyCRuntimeLib.lib(stm32f10x_usart.o)
 .ARM.attributes
                0x0000061e       0x21 C:\Program Files (x86)\Intelitek\easyC V4 for Cortex\#Tools\STM32F103VD\easyCRuntime\easyCRuntimeLib.lib(cortexm3_macro.o)
 .ARM.attributes
                0x0000063f       0x31 C:\Program Files (x86)\Intelitek\easyC V4 for Cortex\#Tools\STM32F103VD\Link\STM32x_io_putchar_thumb.a(syscalls.o)
 .ARM.attributes
                0x00000670       0x2e C:\Program Files (x86)\Intelitek\easyC V4 for Cortex\#Tools\STM32F103VD\Link\e_stdio_thumb.a(_sp_printf.o)
 .ARM.attributes
                0x0000069e       0x2e C:\Program Files (x86)\Intelitek\easyC V4 for Cortex\#Tools\STM32F103VD\Link\e_stdio_thumb.a(_sp_vfprintf.o)
 .ARM.attributes
                0x000006cc       0x2e C:\Program Files (x86)\Intelitek\easyC V4 for Cortex\#Tools\STM32F103VD\Link\e_stdio_thumb.a(_sp_puts.o)
 .ARM.attributes
                0x000006fa       0x2e C:\Program Files (x86)\Intelitek\easyC V4 for Cortex\#Tools\STM32F103VD\Link\e_stdio_thumb.a(_sp_sprintf.o)
 .ARM.attributes
                0x00000728       0x2e C:\Program Files (x86)\Intelitek\easyC V4 for Cortex\#Tools\STM32F103VD\Link\e_stdio_thumb.a(small_dtoa.o)
 .ARM.attributes
                0x00000756       0x2e C:\Program Files (x86)\Intelitek\easyC V4 for Cortex\#Tools\STM32F103VD\Link\e_stdio_thumb.a(small_wcsrtombs.o)
 .ARM.attributes
                0x00000784       0x2e C:\Program Files (x86)\Intelitek\easyC V4 for Cortex\#Tools\STM32F103VD\Link\e_stdio_thumb.a(small_wcrtomb.o)
 .ARM.attributes
                0x000007b2       0x2e C:\Program Files (x86)\Intelitek\easyC V4 for Cortex\#Tools\STM32F103VD\Link\e_stdio_thumb.a(small_mprec.o)
